---
triple:          'arm64-apple-darwin'
binary-path:     .out
relocations:
  - { offsetInCU: 0xE8, offset: 0xE8, size: 0x8, addend: 0x0, symName: __ZSt23__is_constant_evaluatedv, symObjAddr: 0x0, symBinAddr: 0x10000110C, symSize: 0x8 }
  - { offsetInCU: 0xF0, offset: 0xF0, size: 0x8, addend: 0x0, symName: __ZNSt8__detail11__synth3wayE, symObjAddr: 0x15F88, symBinAddr: 0x100019270, symSize: 0x0 }
  - { offsetInCU: 0x3DBEE, offset: 0x3DBEE, size: 0x8, addend: 0x0, symName: __ZStL8__ioinit, symObjAddr: 0x164B00, symBinAddr: 0x1000292F8, symSize: 0x0 }
  - { offsetInCU: 0x3FEDC, offset: 0x3FEDC, size: 0x8, addend: 0x0, symName: _op, symObjAddr: 0x164B01, symBinAddr: 0x1000292F9, symSize: 0x0 }
  - { offsetInCU: 0x3FF27, offset: 0x3FF27, size: 0x8, addend: 0x0, symName: _e, symObjAddr: 0x164B02, symBinAddr: 0x1000292FA, symSize: 0x0 }
  - { offsetInCU: 0x4116F, offset: 0x4116F, size: 0x8, addend: 0x0, symName: __GLOBAL__sub_I_swag.test.cpp, symObjAddr: 0x15F74, symBinAddr: 0x100017080, symSize: 0x14 }
  - { offsetInCU: 0x41177, offset: 0x41177, size: 0x8, addend: 0x0, symName: __ZNSt8__detail11__synth3wayE, symObjAddr: 0x15F88, symBinAddr: 0x100019270, symSize: 0x0 }
  - { offsetInCU: 0x41195, offset: 0x41195, size: 0x8, addend: 0x0, symName: __Z41__static_initialization_and_destruction_0v, symObjAddr: 0x15F38, symBinAddr: 0x100017044, symSize: 0x3C }
  - { offsetInCU: 0x4119D, offset: 0x4119D, size: 0x8, addend: 0x0, symName: __GLOBAL__sub_I_swag.test.cpp, symObjAddr: 0x15F74, symBinAddr: 0x100017080, symSize: 0x14 }
  - { offsetInCU: 0x41186, offset: 0x41186, size: 0x8, addend: 0x0, symName: __ZNSt11__copy_moveILb0ELb0ESt26random_access_iterator_tagE12__assign_oneIPSt4pairIN7atcoder13static_modintILi998244353ELPv0EEES7_ES9_EEvPT_PT0_, symObjAddr: 0x15F10, symBinAddr: 0x10001701C, symSize: 0x28 }
  - { offsetInCU: 0x4118E, offset: 0x4118E, size: 0x8, addend: 0x0, symName: __Z41__static_initialization_and_destruction_0v, symObjAddr: 0x15F38, symBinAddr: 0x100017044, symSize: 0x3C }
  - { offsetInCU: 0x411D3, offset: 0x411D3, size: 0x8, addend: 0x0, symName: __ZNSt20__copy_move_backwardILb0ELb1ESt26random_access_iterator_tagE13__copy_move_bIPSt4pairIN7atcoder13static_modintILi998244353ELPv0EEES7_ES9_EEPT0_PT_SD_SB_, symObjAddr: 0x15E64, symBinAddr: 0x100016F70, symSize: 0xAC }
  - { offsetInCU: 0x411DB, offset: 0x411DB, size: 0x8, addend: 0x0, symName: __ZNSt11__copy_moveILb0ELb0ESt26random_access_iterator_tagE12__assign_oneIPSt4pairIN7atcoder13static_modintILi998244353ELPv0EEES7_ES9_EEvPT_PT0_, symObjAddr: 0x15F10, symBinAddr: 0x10001701C, symSize: 0x28 }
  - { offsetInCU: 0x41242, offset: 0x41242, size: 0x8, addend: 0x0, symName: __ZNSt20__copy_move_backwardILb0ELb0ESt26random_access_iterator_tagE13__copy_move_bIPPSt4pairIN7atcoder13static_modintILi998244353ELPv0EEES7_ESA_EET0_T_SC_SB_, symObjAddr: 0x15DF0, symBinAddr: 0x100016EFC, symSize: 0x74 }
  - { offsetInCU: 0x4124A, offset: 0x4124A, size: 0x8, addend: 0x0, symName: __ZNSt20__copy_move_backwardILb0ELb1ESt26random_access_iterator_tagE13__copy_move_bIPSt4pairIN7atcoder13static_modintILi998244353ELPv0EEES7_ES9_EEPT0_PT_SD_SB_, symObjAddr: 0x15E64, symBinAddr: 0x100016F70, symSize: 0xAC }
  - { offsetInCU: 0x412B1, offset: 0x412B1, size: 0x8, addend: 0x0, symName: __ZNSt11__copy_moveILb0ELb1ESt26random_access_iterator_tagE8__copy_mIPSt4pairIN7atcoder13static_modintILi998244353ELPv0EEES7_ES9_EEPT0_PT_SD_SB_, symObjAddr: 0x15D60, symBinAddr: 0x100016E6C, symSize: 0x90 }
  - { offsetInCU: 0x412B9, offset: 0x412B9, size: 0x8, addend: 0x0, symName: __ZNSt20__copy_move_backwardILb0ELb0ESt26random_access_iterator_tagE13__copy_move_bIPPSt4pairIN7atcoder13static_modintILi998244353ELPv0EEES7_ESA_EET0_T_SC_SB_, symObjAddr: 0x15DF0, symBinAddr: 0x100016EFC, symSize: 0x74 }
  - { offsetInCU: 0x41320, offset: 0x41320, size: 0x8, addend: 0x0, symName: __ZNSt11__copy_moveILb0ELb0ESt26random_access_iterator_tagE8__copy_mIPPSt4pairIN7atcoder13static_modintILi998244353ELPv0EEES7_ESA_EET0_T_SC_SB_, symObjAddr: 0x15CEC, symBinAddr: 0x100016DF8, symSize: 0x74 }
  - { offsetInCU: 0x41328, offset: 0x41328, size: 0x8, addend: 0x0, symName: __ZNSt11__copy_moveILb0ELb1ESt26random_access_iterator_tagE8__copy_mIPSt4pairIN7atcoder13static_modintILi998244353ELPv0EEES7_ES9_EEPT0_PT_SD_SB_, symObjAddr: 0x15D60, symBinAddr: 0x100016E6C, symSize: 0x90 }
  - { offsetInCU: 0x413AF, offset: 0x413AF, size: 0x8, addend: 0x0, symName: __ZSt23__copy_move_backward_a2ILb0EPPSt4pairIN7atcoder13static_modintILi998244353ELPv0EEES4_ES7_ET1_T0_S9_S8_, symObjAddr: 0x15C94, symBinAddr: 0x100016DA0, symSize: 0x58 }
  - { offsetInCU: 0x413B7, offset: 0x413B7, size: 0x8, addend: 0x0, symName: __ZNSt11__copy_moveILb0ELb0ESt26random_access_iterator_tagE8__copy_mIPPSt4pairIN7atcoder13static_modintILi998244353ELPv0EEES7_ESA_EET0_T_SC_SB_, symObjAddr: 0x15CEC, symBinAddr: 0x100016DF8, symSize: 0x74 }
  - { offsetInCU: 0x41417, offset: 0x41417, size: 0x8, addend: 0x0, symName: __ZSt14__copy_move_a2ILb0EPPSt4pairIN7atcoder13static_modintILi998244353ELPv0EEES4_ES7_ET1_T0_S9_S8_, symObjAddr: 0x15C3C, symBinAddr: 0x100016D48, symSize: 0x58 }
  - { offsetInCU: 0x4141F, offset: 0x4141F, size: 0x8, addend: 0x0, symName: __ZSt23__copy_move_backward_a2ILb0EPPSt4pairIN7atcoder13static_modintILi998244353ELPv0EEES4_ES7_ET1_T0_S9_S8_, symObjAddr: 0x15C94, symBinAddr: 0x100016DA0, symSize: 0x58 }
  - { offsetInCU: 0x4147F, offset: 0x4147F, size: 0x8, addend: 0x0, symName: __ZSt12construct_atIN7atcoder13static_modintILi469762049ELPv0EEEJS3_EEDTgsnwcvS2_Li0E_T_pispcl7declvalIT0_EEEEPS4_DpOS5_, symObjAddr: 0x15BF4, symBinAddr: 0x100016D00, symSize: 0x48 }
  - { offsetInCU: 0x41487, offset: 0x41487, size: 0x8, addend: 0x0, symName: __ZSt14__copy_move_a2ILb0EPPSt4pairIN7atcoder13static_modintILi998244353ELPv0EEES4_ES7_ET1_T0_S9_S8_, symObjAddr: 0x15C3C, symBinAddr: 0x100016D48, symSize: 0x58 }
  - { offsetInCU: 0x414D1, offset: 0x414D1, size: 0x8, addend: 0x0, symName: __ZSt7forwardIN7atcoder13static_modintILi469762049ELPv0EEEEOT_RNSt16remove_referenceIS4_E4typeE, symObjAddr: 0x15BE0, symBinAddr: 0x100016CEC, symSize: 0x14 }
  - { offsetInCU: 0x414D9, offset: 0x414D9, size: 0x8, addend: 0x0, symName: __ZSt12construct_atIN7atcoder13static_modintILi469762049ELPv0EEEJS3_EEDTgsnwcvS2_Li0E_T_pispcl7declvalIT0_EEEEPS4_DpOS5_, symObjAddr: 0x15BF4, symBinAddr: 0x100016D00, symSize: 0x48 }
  - { offsetInCU: 0x41503, offset: 0x41503, size: 0x8, addend: 0x0, symName: __ZSt12construct_atIN7atcoder13static_modintILi167772161ELPv0EEEJS3_EEDTgsnwcvS2_Li0E_T_pispcl7declvalIT0_EEEEPS4_DpOS5_, symObjAddr: 0x15B98, symBinAddr: 0x100016CA4, symSize: 0x48 }
  - { offsetInCU: 0x4150B, offset: 0x4150B, size: 0x8, addend: 0x0, symName: __ZSt7forwardIN7atcoder13static_modintILi469762049ELPv0EEEEOT_RNSt16remove_referenceIS4_E4typeE, symObjAddr: 0x15BE0, symBinAddr: 0x100016CEC, symSize: 0x14 }
  - { offsetInCU: 0x41555, offset: 0x41555, size: 0x8, addend: 0x0, symName: __ZSt7forwardIN7atcoder13static_modintILi167772161ELPv0EEEEOT_RNSt16remove_referenceIS4_E4typeE, symObjAddr: 0x15B84, symBinAddr: 0x100016C90, symSize: 0x14 }
  - { offsetInCU: 0x4155D, offset: 0x4155D, size: 0x8, addend: 0x0, symName: __ZSt12construct_atIN7atcoder13static_modintILi167772161ELPv0EEEJS3_EEDTgsnwcvS2_Li0E_T_pispcl7declvalIT0_EEEEPS4_DpOS5_, symObjAddr: 0x15B98, symBinAddr: 0x100016CA4, symSize: 0x48 }
  - { offsetInCU: 0x41587, offset: 0x41587, size: 0x8, addend: 0x0, symName: __ZSt12construct_atIN7atcoder13static_modintILi754974721ELPv0EEEJS3_EEDTgsnwcvS2_Li0E_T_pispcl7declvalIT0_EEEEPS4_DpOS5_, symObjAddr: 0x15B3C, symBinAddr: 0x100016C48, symSize: 0x48 }
  - { offsetInCU: 0x4158F, offset: 0x4158F, size: 0x8, addend: 0x0, symName: __ZSt7forwardIN7atcoder13static_modintILi167772161ELPv0EEEEOT_RNSt16remove_referenceIS4_E4typeE, symObjAddr: 0x15B84, symBinAddr: 0x100016C90, symSize: 0x14 }
  - { offsetInCU: 0x415D9, offset: 0x415D9, size: 0x8, addend: 0x0, symName: __ZSt7forwardIN7atcoder13static_modintILi754974721ELPv0EEEEOT_RNSt16remove_referenceIS4_E4typeE, symObjAddr: 0x15B28, symBinAddr: 0x100016C34, symSize: 0x14 }
  - { offsetInCU: 0x415E1, offset: 0x415E1, size: 0x8, addend: 0x0, symName: __ZSt12construct_atIN7atcoder13static_modintILi754974721ELPv0EEEJS3_EEDTgsnwcvS2_Li0E_T_pispcl7declvalIT0_EEEEPS4_DpOS5_, symObjAddr: 0x15B3C, symBinAddr: 0x100016C48, symSize: 0x48 }
  - { offsetInCU: 0x4160B, offset: 0x4160B, size: 0x8, addend: 0x0, symName: __ZSt23__copy_move_backward_a1ILb0EPPSt4pairIN7atcoder13static_modintILi998244353ELPv0EEES4_ES7_ET1_T0_S9_S8_, symObjAddr: 0x15AFC, symBinAddr: 0x100016C08, symSize: 0x2C }
  - { offsetInCU: 0x41613, offset: 0x41613, size: 0x8, addend: 0x0, symName: __ZSt7forwardIN7atcoder13static_modintILi754974721ELPv0EEEEOT_RNSt16remove_referenceIS4_E4typeE, symObjAddr: 0x15B28, symBinAddr: 0x100016C34, symSize: 0x14 }
  - { offsetInCU: 0x41673, offset: 0x41673, size: 0x8, addend: 0x0, symName: __ZSt12__niter_wrapIPPSt4pairIN7atcoder13static_modintILi998244353ELPv0EEES4_EET_RKS8_S8_, symObjAddr: 0x15AE4, symBinAddr: 0x100016BF0, symSize: 0x18 }
  - { offsetInCU: 0x4167B, offset: 0x4167B, size: 0x8, addend: 0x0, symName: __ZSt23__copy_move_backward_a1ILb0EPPSt4pairIN7atcoder13static_modintILi998244353ELPv0EEES4_ES7_ET1_T0_S9_S8_, symObjAddr: 0x15AFC, symBinAddr: 0x100016C08, symSize: 0x2C }
  - { offsetInCU: 0x416AF, offset: 0x416AF, size: 0x8, addend: 0x0, symName: __ZSt14__copy_move_a1ILb0EPPSt4pairIN7atcoder13static_modintILi998244353ELPv0EEES4_ES7_ET1_T0_S9_S8_, symObjAddr: 0x15AB8, symBinAddr: 0x100016BC4, symSize: 0x2C }
  - { offsetInCU: 0x416B7, offset: 0x416B7, size: 0x8, addend: 0x0, symName: __ZSt12__niter_wrapIPPSt4pairIN7atcoder13static_modintILi998244353ELPv0EEES4_EET_RKS8_S8_, symObjAddr: 0x15AE4, symBinAddr: 0x100016BF0, symSize: 0x18 }
  - { offsetInCU: 0x41717, offset: 0x41717, size: 0x8, addend: 0x0, symName: __ZSt12__niter_baseIPPSt4pairIN7atcoder13static_modintILi998244353ELPv0EEES4_EET_S8_, symObjAddr: 0x15AA4, symBinAddr: 0x100016BB0, symSize: 0x14 }
  - { offsetInCU: 0x4171F, offset: 0x4171F, size: 0x8, addend: 0x0, symName: __ZSt14__copy_move_a1ILb0EPPSt4pairIN7atcoder13static_modintILi998244353ELPv0EEES4_ES7_ET1_T0_S9_S8_, symObjAddr: 0x15AB8, symBinAddr: 0x100016BC4, symSize: 0x2C }
  - { offsetInCU: 0x4174A, offset: 0x4174A, size: 0x8, addend: 0x0, symName: __ZNSt11__copy_moveILb0ELb0ESt26random_access_iterator_tagE12__assign_oneIiKiEEvPT_PT0_, symObjAddr: 0x15A7C, symBinAddr: 0x100016B88, symSize: 0x28 }
  - { offsetInCU: 0x41752, offset: 0x41752, size: 0x8, addend: 0x0, symName: __ZSt12__niter_baseIPPSt4pairIN7atcoder13static_modintILi998244353ELPv0EEES4_EET_S8_, symObjAddr: 0x15AA4, symBinAddr: 0x100016BB0, symSize: 0x14 }
  - { offsetInCU: 0x41797, offset: 0x41797, size: 0x8, addend: 0x0, symName: __ZNSt11__copy_moveILb1ELb0ESt26random_access_iterator_tagE12__assign_oneIiiEEvPT_PT0_, symObjAddr: 0x15A4C, symBinAddr: 0x100016B58, symSize: 0x30 }
  - { offsetInCU: 0x4179F, offset: 0x4179F, size: 0x8, addend: 0x0, symName: __ZNSt11__copy_moveILb0ELb0ESt26random_access_iterator_tagE12__assign_oneIiKiEEvPT_PT0_, symObjAddr: 0x15A7C, symBinAddr: 0x100016B88, symSize: 0x28 }
  - { offsetInCU: 0x4185B, offset: 0x4185B, size: 0x8, addend: 0x0, symName: __ZSt4moveIRN7atcoder13static_modintILi469762049ELPv0EEEEONSt16remove_referenceIT_E4typeEOS6_, symObjAddr: 0x15A38, symBinAddr: 0x100016B44, symSize: 0x14 }
  - { offsetInCU: 0x41863, offset: 0x41863, size: 0x8, addend: 0x0, symName: __ZNSt11__copy_moveILb1ELb0ESt26random_access_iterator_tagE12__assign_oneIiiEEvPT_PT0_, symObjAddr: 0x15A4C, symBinAddr: 0x100016B58, symSize: 0x30 }
  - { offsetInCU: 0x41904, offset: 0x41904, size: 0x8, addend: 0x0, symName: __ZSt4moveIRN7atcoder13static_modintILi167772161ELPv0EEEEONSt16remove_referenceIT_E4typeEOS6_, symObjAddr: 0x15A24, symBinAddr: 0x100016B30, symSize: 0x14 }
  - { offsetInCU: 0x4190C, offset: 0x4190C, size: 0x8, addend: 0x0, symName: __ZSt4moveIRN7atcoder13static_modintILi469762049ELPv0EEEEONSt16remove_referenceIT_E4typeEOS6_, symObjAddr: 0x15A38, symBinAddr: 0x100016B44, symSize: 0x14 }
  - { offsetInCU: 0x419AD, offset: 0x419AD, size: 0x8, addend: 0x0, symName: __ZSt4moveIRN7atcoder13static_modintILi754974721ELPv0EEEEONSt16remove_referenceIT_E4typeEOS6_, symObjAddr: 0x15A10, symBinAddr: 0x100016B1C, symSize: 0x14 }
  - { offsetInCU: 0x419B5, offset: 0x419B5, size: 0x8, addend: 0x0, symName: __ZSt4moveIRN7atcoder13static_modintILi167772161ELPv0EEEEONSt16remove_referenceIT_E4typeEOS6_, symObjAddr: 0x15A24, symBinAddr: 0x100016B30, symSize: 0x14 }
  - { offsetInCU: 0x419F6, offset: 0x419F6, size: 0x8, addend: 0x0, symName: __ZSt22__copy_move_backward_aILb0EPPSt4pairIN7atcoder13static_modintILi998244353ELPv0EEES4_ES7_ET1_T0_S9_S8_, symObjAddr: 0x159B0, symBinAddr: 0x100016ABC, symSize: 0x60 }
  - { offsetInCU: 0x419FE, offset: 0x419FE, size: 0x8, addend: 0x0, symName: __ZSt4moveIRN7atcoder13static_modintILi754974721ELPv0EEEEONSt16remove_referenceIT_E4typeEOS6_, symObjAddr: 0x15A10, symBinAddr: 0x100016B1C, symSize: 0x14 }
  - { offsetInCU: 0x41A5E, offset: 0x41A5E, size: 0x8, addend: 0x0, symName: __ZSt13__copy_move_aILb0EPPSt4pairIN7atcoder13static_modintILi998244353ELPv0EEES4_ES7_ET1_T0_S9_S8_, symObjAddr: 0x15950, symBinAddr: 0x100016A5C, symSize: 0x60 }
  - { offsetInCU: 0x41A66, offset: 0x41A66, size: 0x8, addend: 0x0, symName: __ZSt22__copy_move_backward_aILb0EPPSt4pairIN7atcoder13static_modintILi998244353ELPv0EEES4_ES7_ET1_T0_S9_S8_, symObjAddr: 0x159B0, symBinAddr: 0x100016ABC, symSize: 0x60 }
  - { offsetInCU: 0x41AC6, offset: 0x41AC6, size: 0x8, addend: 0x0, symName: __ZSt12__miter_baseIPPSt4pairIN7atcoder13static_modintILi998244353ELPv0EEES4_EET_S8_, symObjAddr: 0x1593C, symBinAddr: 0x100016A48, symSize: 0x14 }
  - { offsetInCU: 0x41ACE, offset: 0x41ACE, size: 0x8, addend: 0x0, symName: __ZSt13__copy_move_aILb0EPPSt4pairIN7atcoder13static_modintILi998244353ELPv0EEES4_ES7_ET1_T0_S9_S8_, symObjAddr: 0x15950, symBinAddr: 0x100016A5C, symSize: 0x60 }
  - { offsetInCU: 0x41B10, offset: 0x41B10, size: 0x8, addend: 0x0, symName: __ZSt12__niter_baseIPKiET_S2_, symObjAddr: 0x15928, symBinAddr: 0x100016A34, symSize: 0x14 }
  - { offsetInCU: 0x41B18, offset: 0x41B18, size: 0x8, addend: 0x0, symName: __ZSt12__miter_baseIPPSt4pairIN7atcoder13static_modintILi998244353ELPv0EEES4_EET_S8_, symObjAddr: 0x1593C, symBinAddr: 0x100016A48, symSize: 0x14 }
  - { offsetInCU: 0x41B47, offset: 0x41B47, size: 0x8, addend: 0x0, symName: __ZN9__gnu_cxx5__ops14_Iter_comp_valIZN7atcoder8internal11sa_doublingERKSt6vectorIiSaIiEEEUliiE_EclINS_17__normal_iteratorIPiS6_EEiEEbT_RT0_, symObjAddr: 0x158DC, symBinAddr: 0x1000169E8, symSize: 0x4C }
  - { offsetInCU: 0x41B4F, offset: 0x41B4F, size: 0x8, addend: 0x0, symName: __ZSt12__niter_baseIPKiET_S2_, symObjAddr: 0x15928, symBinAddr: 0x100016A34, symSize: 0x14 }
  - { offsetInCU: 0x41BA0, offset: 0x41BA0, size: 0x8, addend: 0x0, symName: __ZNSt11__copy_moveILb0ELb1ESt26random_access_iterator_tagE8__copy_mIKiiEEPT0_PT_S7_S5_, symObjAddr: 0x1584C, symBinAddr: 0x100016958, symSize: 0x90 }
  - { offsetInCU: 0x41BA8, offset: 0x41BA8, size: 0x8, addend: 0x0, symName: __ZN9__gnu_cxx5__ops14_Iter_comp_valIZN7atcoder8internal11sa_doublingERKSt6vectorIiSaIiEEEUliiE_EclINS_17__normal_iteratorIPiS6_EEiEEbT_RT0_, symObjAddr: 0x158DC, symBinAddr: 0x1000169E8, symSize: 0x4C }
  - { offsetInCU: 0x41C0F, offset: 0x41C0F, size: 0x8, addend: 0x0, symName: __ZNSt11__copy_moveILb0ELb0ESt26random_access_iterator_tagE8__copy_mIPKiPiEET0_T_S7_S6_, symObjAddr: 0x157D8, symBinAddr: 0x1000168E4, symSize: 0x74 }
  - { offsetInCU: 0x41C17, offset: 0x41C17, size: 0x8, addend: 0x0, symName: __ZNSt11__copy_moveILb0ELb1ESt26random_access_iterator_tagE8__copy_mIKiiEEPT0_PT_S7_S5_, symObjAddr: 0x1584C, symBinAddr: 0x100016958, symSize: 0x90 }
  - { offsetInCU: 0x41C9E, offset: 0x41C9E, size: 0x8, addend: 0x0, symName: __ZNSt20__copy_move_backwardILb1ELb1ESt26random_access_iterator_tagE13__copy_move_bIiiEEPT0_PT_S6_S4_, symObjAddr: 0x1572C, symBinAddr: 0x100016838, symSize: 0xAC }
  - { offsetInCU: 0x41CA6, offset: 0x41CA6, size: 0x8, addend: 0x0, symName: __ZNSt11__copy_moveILb0ELb0ESt26random_access_iterator_tagE8__copy_mIPKiPiEET0_T_S7_S6_, symObjAddr: 0x157D8, symBinAddr: 0x1000168E4, symSize: 0x74 }
  - { offsetInCU: 0x41D0D, offset: 0x41D0D, size: 0x8, addend: 0x0, symName: __ZNSt20__copy_move_backwardILb1ELb0ESt26random_access_iterator_tagE13__copy_move_bIPiS3_EET0_T_S5_S4_, symObjAddr: 0x156B0, symBinAddr: 0x1000167BC, symSize: 0x7C }
  - { offsetInCU: 0x41D15, offset: 0x41D15, size: 0x8, addend: 0x0, symName: __ZNSt20__copy_move_backwardILb1ELb1ESt26random_access_iterator_tagE13__copy_move_bIiiEEPT0_PT_S6_S4_, symObjAddr: 0x1572C, symBinAddr: 0x100016838, symSize: 0xAC }
  - { offsetInCU: 0x41D80, offset: 0x41D80, size: 0x8, addend: 0x0, symName: __ZN9__gnu_cxx5__ops14_Iter_comp_valIZN7atcoder8internal8sa_naiveERKSt6vectorIiSaIiEEEUliiE_EclINS_17__normal_iteratorIPiS6_EEiEEbT_RT0_, symObjAddr: 0x15664, symBinAddr: 0x100016770, symSize: 0x4C }
  - { offsetInCU: 0x41D88, offset: 0x41D88, size: 0x8, addend: 0x0, symName: __ZNSt20__copy_move_backwardILb1ELb0ESt26random_access_iterator_tagE13__copy_move_bIPiS3_EET0_T_S5_S4_, symObjAddr: 0x156B0, symBinAddr: 0x1000167BC, symSize: 0x7C }
  - { offsetInCU: 0x41DD9, offset: 0x41DD9, size: 0x8, addend: 0x0, symName: __ZSt9__fill_a1IPxxEN9__gnu_cxx11__enable_ifIXsrSt11__is_scalarIT0_E7__valueEvE6__typeET_S8_RKS4_, symObjAddr: 0x1560C, symBinAddr: 0x100016718, symSize: 0x58 }
  - { offsetInCU: 0x41DE1, offset: 0x41DE1, size: 0x8, addend: 0x0, symName: __ZN9__gnu_cxx5__ops14_Iter_comp_valIZN7atcoder8internal8sa_naiveERKSt6vectorIiSaIiEEEUliiE_EclINS_17__normal_iteratorIPiS6_EEiEEbT_RT0_, symObjAddr: 0x15664, symBinAddr: 0x100016770, symSize: 0x4C }
  - { offsetInCU: 0x41E48, offset: 0x41E48, size: 0x8, addend: 0x0, symName: __ZSt19__relocate_object_aIN7atcoder13static_modintILi469762049ELPv0EEES3_SaIS3_EEvPT_PT0_RT1_, symObjAddr: 0x15590, symBinAddr: 0x10001669C, symSize: 0x7C }
  - { offsetInCU: 0x41E50, offset: 0x41E50, size: 0x8, addend: 0x0, symName: __ZSt9__fill_a1IPxxEN9__gnu_cxx11__enable_ifIXsrSt11__is_scalarIT0_E7__valueEvE6__typeET_S8_RKS4_, symObjAddr: 0x1560C, symBinAddr: 0x100016718, symSize: 0x58 }
  - { offsetInCU: 0x41F2A, offset: 0x41F2A, size: 0x8, addend: 0x0, symName: __ZSt19__relocate_object_aIN7atcoder13static_modintILi167772161ELPv0EEES3_SaIS3_EEvPT_PT0_RT1_, symObjAddr: 0x15514, symBinAddr: 0x100016620, symSize: 0x7C }
  - { offsetInCU: 0x41F32, offset: 0x41F32, size: 0x8, addend: 0x0, symName: __ZSt19__relocate_object_aIN7atcoder13static_modintILi469762049ELPv0EEES3_SaIS3_EEvPT_PT0_RT1_, symObjAddr: 0x15590, symBinAddr: 0x10001669C, symSize: 0x7C }
  - { offsetInCU: 0x4200C, offset: 0x4200C, size: 0x8, addend: 0x0, symName: __ZSt19__relocate_object_aIN7atcoder13static_modintILi754974721ELPv0EEES3_SaIS3_EEvPT_PT0_RT1_, symObjAddr: 0x15498, symBinAddr: 0x1000165A4, symSize: 0x7C }
  - { offsetInCU: 0x42014, offset: 0x42014, size: 0x8, addend: 0x0, symName: __ZSt19__relocate_object_aIN7atcoder13static_modintILi167772161ELPv0EEES3_SaIS3_EEvPT_PT0_RT1_, symObjAddr: 0x15514, symBinAddr: 0x100016620, symSize: 0x7C }
  - { offsetInCU: 0x420EE, offset: 0x420EE, size: 0x8, addend: 0x0, symName: __ZSt19__relocate_object_aISt4pairIN7atcoder13static_modintILi998244353ELPv0EEES4_ES5_SaIS5_EEvPT_PT0_RT1_, symObjAddr: 0x1541C, symBinAddr: 0x100016528, symSize: 0x7C }
  - { offsetInCU: 0x420F6, offset: 0x420F6, size: 0x8, addend: 0x0, symName: __ZSt19__relocate_object_aIN7atcoder13static_modintILi754974721ELPv0EEES3_SaIS3_EEvPT_PT0_RT1_, symObjAddr: 0x15498, symBinAddr: 0x1000165A4, symSize: 0x7C }
  - { offsetInCU: 0x421BD, offset: 0x421BD, size: 0x8, addend: 0x0, symName: __ZNSt15__new_allocatorISt4pairIN7atcoder13static_modintILi998244353ELPv0EEES4_EE8allocateEmPKv, symObjAddr: 0x153A0, symBinAddr: 0x1000164AC, symSize: 0x7C }
  - { offsetInCU: 0x421C5, offset: 0x421C5, size: 0x8, addend: 0x0, symName: __ZSt19__relocate_object_aISt4pairIN7atcoder13static_modintILi998244353ELPv0EEES4_ES5_SaIS5_EEvPT_PT0_RT1_, symObjAddr: 0x1541C, symBinAddr: 0x100016528, symSize: 0x7C }
  - { offsetInCU: 0x42230, offset: 0x42230, size: 0x8, addend: 0x0, symName: __ZSt13copy_backwardIPPSt4pairIN7atcoder13static_modintILi998244353ELPv0EEES4_ES7_ET0_T_S9_S8_, symObjAddr: 0x15358, symBinAddr: 0x100016464, symSize: 0x48 }
  - { offsetInCU: 0x42238, offset: 0x42238, size: 0x8, addend: 0x0, symName: __ZNSt15__new_allocatorISt4pairIN7atcoder13static_modintILi998244353ELPv0EEES4_EE8allocateEmPKv, symObjAddr: 0x153A0, symBinAddr: 0x1000164AC, symSize: 0x7C }
  - { offsetInCU: 0x4228E, offset: 0x4228E, size: 0x8, addend: 0x0, symName: __ZSt4copyIPPSt4pairIN7atcoder13static_modintILi998244353ELPv0EEES4_ES7_ET0_T_S9_S8_, symObjAddr: 0x15310, symBinAddr: 0x10001641C, symSize: 0x48 }
  - { offsetInCU: 0x42296, offset: 0x42296, size: 0x8, addend: 0x0, symName: __ZSt13copy_backwardIPPSt4pairIN7atcoder13static_modintILi998244353ELPv0EEES4_ES7_ET0_T_S9_S8_, symObjAddr: 0x15358, symBinAddr: 0x100016464, symSize: 0x48 }
  - { offsetInCU: 0x422F0, offset: 0x422F0, size: 0x8, addend: 0x0, symName: __ZNSt15__new_allocatorIPSt4pairIN7atcoder13static_modintILi998244353ELPv0EEES4_EE8allocateEmPKv, symObjAddr: 0x15294, symBinAddr: 0x1000163A0, symSize: 0x7C }
  - { offsetInCU: 0x422F8, offset: 0x422F8, size: 0x8, addend: 0x0, symName: __ZSt4copyIPPSt4pairIN7atcoder13static_modintILi998244353ELPv0EEES4_ES7_ET0_T_S9_S8_, symObjAddr: 0x15310, symBinAddr: 0x10001641C, symSize: 0x48 }
  - { offsetInCU: 0x42363, offset: 0x42363, size: 0x8, addend: 0x0, symName: __ZSt13__copy_move_aILb0EPKiPiET1_T0_S4_S3_, symObjAddr: 0x15234, symBinAddr: 0x100016340, symSize: 0x60 }
  - { offsetInCU: 0x4236B, offset: 0x4236B, size: 0x8, addend: 0x0, symName: __ZNSt15__new_allocatorIPSt4pairIN7atcoder13static_modintILi998244353ELPv0EEES4_EE8allocateEmPKv, symObjAddr: 0x15294, symBinAddr: 0x1000163A0, symSize: 0x7C }
  - { offsetInCU: 0x423CB, offset: 0x423CB, size: 0x8, addend: 0x0, symName: __ZSt12__miter_baseIPKiET_S2_, symObjAddr: 0x15220, symBinAddr: 0x10001632C, symSize: 0x14 }
  - { offsetInCU: 0x423D3, offset: 0x423D3, size: 0x8, addend: 0x0, symName: __ZSt13__copy_move_aILb0EPKiPiET1_T0_S4_S3_, symObjAddr: 0x15234, symBinAddr: 0x100016340, symSize: 0x60 }
  - { offsetInCU: 0x42404, offset: 0x42404, size: 0x8, addend: 0x0, symName: __ZSt11__push_heapIN9__gnu_cxx17__normal_iteratorIPiSt6vectorIiSaIiEEEEliNS0_5__ops14_Iter_comp_valIZN7atcoder8internal11sa_doublingERKS5_EUliiE_EEEvT_T0_SG_T1_RT2_, symObjAddr: 0x150F8, symBinAddr: 0x100016204, symSize: 0x128 }
  - { offsetInCU: 0x4240C, offset: 0x4240C, size: 0x8, addend: 0x0, symName: __ZSt12__miter_baseIPKiET_S2_, symObjAddr: 0x15220, symBinAddr: 0x10001632C, symSize: 0x14 }
  - { offsetInCU: 0x424A2, offset: 0x424A2, size: 0x8, addend: 0x0, symName: __ZSt14__copy_move_a2ILb0EPKiPiET1_T0_S4_S3_, symObjAddr: 0x150A0, symBinAddr: 0x1000161AC, symSize: 0x58 }
  - { offsetInCU: 0x424AA, offset: 0x424AA, size: 0x8, addend: 0x0, symName: __ZSt11__push_heapIN9__gnu_cxx17__normal_iteratorIPiSt6vectorIiSaIiEEEEliNS0_5__ops14_Iter_comp_valIZN7atcoder8internal11sa_doublingERKS5_EUliiE_EEEvT_T0_SG_T1_RT2_, symObjAddr: 0x150F8, symBinAddr: 0x100016204, symSize: 0x128 }
  - { offsetInCU: 0x4250A, offset: 0x4250A, size: 0x8, addend: 0x0, symName: __ZSt23__copy_move_backward_a2ILb1EPiS0_ET1_T0_S2_S1_, symObjAddr: 0x15048, symBinAddr: 0x100016154, symSize: 0x58 }
  - { offsetInCU: 0x42512, offset: 0x42512, size: 0x8, addend: 0x0, symName: __ZSt14__copy_move_a2ILb0EPKiPiET1_T0_S4_S3_, symObjAddr: 0x150A0, symBinAddr: 0x1000161AC, symSize: 0x58 }
  - { offsetInCU: 0x42578, offset: 0x42578, size: 0x8, addend: 0x0, symName: __ZSt11__push_heapIN9__gnu_cxx17__normal_iteratorIPiSt6vectorIiSaIiEEEEliNS0_5__ops14_Iter_comp_valIZN7atcoder8internal8sa_naiveERKS5_EUliiE_EEEvT_T0_SG_T1_RT2_, symObjAddr: 0x14F20, symBinAddr: 0x10001602C, symSize: 0x128 }
  - { offsetInCU: 0x42580, offset: 0x42580, size: 0x8, addend: 0x0, symName: __ZSt23__copy_move_backward_a2ILb1EPiS0_ET1_T0_S2_S1_, symObjAddr: 0x15048, symBinAddr: 0x100016154, symSize: 0x58 }
  - { offsetInCU: 0x42616, offset: 0x42616, size: 0x8, addend: 0x0, symName: __ZSt12construct_atIiJiEEDTgsnwcvPvLi0E_T_pispcl7declvalIT0_EEEEPS1_DpOS2_, symObjAddr: 0x14ED8, symBinAddr: 0x100015FE4, symSize: 0x48 }
  - { offsetInCU: 0x4261E, offset: 0x4261E, size: 0x8, addend: 0x0, symName: __ZSt11__push_heapIN9__gnu_cxx17__normal_iteratorIPiSt6vectorIiSaIiEEEEliNS0_5__ops14_Iter_comp_valIZN7atcoder8internal8sa_naiveERKS5_EUliiE_EEEvT_T0_SG_T1_RT2_, symObjAddr: 0x14F20, symBinAddr: 0x10001602C, symSize: 0x128 }
  - { offsetInCU: 0x42662, offset: 0x42662, size: 0x8, addend: 0x0, symName: __ZSt8__fill_aIPiiEvT_S1_RKT0_, symObjAddr: 0x14EA8, symBinAddr: 0x100015FB4, symSize: 0x30 }
  - { offsetInCU: 0x4266A, offset: 0x4266A, size: 0x8, addend: 0x0, symName: __ZSt12construct_atIiJiEEDTgsnwcvPvLi0E_T_pispcl7declvalIT0_EEEEPS1_DpOS2_, symObjAddr: 0x14ED8, symBinAddr: 0x100015FE4, symSize: 0x48 }
  - { offsetInCU: 0x426C0, offset: 0x426C0, size: 0x8, addend: 0x0, symName: __ZSt8__fill_aIPxxEvT_S1_RKT0_, symObjAddr: 0x14E78, symBinAddr: 0x100015F84, symSize: 0x30 }
  - { offsetInCU: 0x426C8, offset: 0x426C8, size: 0x8, addend: 0x0, symName: __ZSt8__fill_aIPiiEvT_S1_RKT0_, symObjAddr: 0x14EA8, symBinAddr: 0x100015FB4, symSize: 0x30 }
  - { offsetInCU: 0x42735, offset: 0x42735, size: 0x8, addend: 0x0, symName: __ZSt14__relocate_a_1IPN7atcoder13static_modintILi469762049ELPv0EEES4_SaIS3_EET0_T_S7_S6_RT1_, symObjAddr: 0x14DF4, symBinAddr: 0x100015F00, symSize: 0x84 }
  - { offsetInCU: 0x4273D, offset: 0x4273D, size: 0x8, addend: 0x0, symName: __ZSt8__fill_aIPxxEvT_S1_RKT0_, symObjAddr: 0x14E78, symBinAddr: 0x100015F84, symSize: 0x30 }
  - { offsetInCU: 0x427BE, offset: 0x427BE, size: 0x8, addend: 0x0, symName: __ZSt12__niter_baseIPN7atcoder13static_modintILi469762049ELPv0EEEET_S5_, symObjAddr: 0x14DE0, symBinAddr: 0x100015EEC, symSize: 0x14 }
  - { offsetInCU: 0x427C6, offset: 0x427C6, size: 0x8, addend: 0x0, symName: __ZSt14__relocate_a_1IPN7atcoder13static_modintILi469762049ELPv0EEES4_SaIS3_EET0_T_S7_S6_RT1_, symObjAddr: 0x14DF4, symBinAddr: 0x100015F00, symSize: 0x84 }
  - { offsetInCU: 0x427F1, offset: 0x427F1, size: 0x8, addend: 0x0, symName: __ZSt12construct_atIN7atcoder13static_modintILi469762049ELPv0EEEJEEDTgsnwcvS2_Li0E_T_pispcl7declvalIT0_EEEEPS4_DpOS5_, symObjAddr: 0x14DA4, symBinAddr: 0x100015EB0, symSize: 0x3C }
  - { offsetInCU: 0x427F9, offset: 0x427F9, size: 0x8, addend: 0x0, symName: __ZSt12__niter_baseIPN7atcoder13static_modintILi469762049ELPv0EEEET_S5_, symObjAddr: 0x14DE0, symBinAddr: 0x100015EEC, symSize: 0x14 }
  - { offsetInCU: 0x42831, offset: 0x42831, size: 0x8, addend: 0x0, symName: __ZNSt15__new_allocatorIN7atcoder13static_modintILi469762049ELPv0EEEE8allocateEmPKv, symObjAddr: 0x14D28, symBinAddr: 0x100015E34, symSize: 0x7C }
  - { offsetInCU: 0x42839, offset: 0x42839, size: 0x8, addend: 0x0, symName: __ZSt12construct_atIN7atcoder13static_modintILi469762049ELPv0EEEJEEDTgsnwcvS2_Li0E_T_pispcl7declvalIT0_EEEEPS4_DpOS5_, symObjAddr: 0x14DA4, symBinAddr: 0x100015EB0, symSize: 0x3C }
  - { offsetInCU: 0x428A4, offset: 0x428A4, size: 0x8, addend: 0x0, symName: __ZSt14__relocate_a_1IPN7atcoder13static_modintILi167772161ELPv0EEES4_SaIS3_EET0_T_S7_S6_RT1_, symObjAddr: 0x14CA4, symBinAddr: 0x100015DB0, symSize: 0x84 }
  - { offsetInCU: 0x428AC, offset: 0x428AC, size: 0x8, addend: 0x0, symName: __ZNSt15__new_allocatorIN7atcoder13static_modintILi469762049ELPv0EEEE8allocateEmPKv, symObjAddr: 0x14D28, symBinAddr: 0x100015E34, symSize: 0x7C }
  - { offsetInCU: 0x4292D, offset: 0x4292D, size: 0x8, addend: 0x0, symName: __ZSt12__niter_baseIPN7atcoder13static_modintILi167772161ELPv0EEEET_S5_, symObjAddr: 0x14C90, symBinAddr: 0x100015D9C, symSize: 0x14 }
  - { offsetInCU: 0x42935, offset: 0x42935, size: 0x8, addend: 0x0, symName: __ZSt14__relocate_a_1IPN7atcoder13static_modintILi167772161ELPv0EEES4_SaIS3_EET0_T_S7_S6_RT1_, symObjAddr: 0x14CA4, symBinAddr: 0x100015DB0, symSize: 0x84 }
  - { offsetInCU: 0x42960, offset: 0x42960, size: 0x8, addend: 0x0, symName: __ZSt12construct_atIN7atcoder13static_modintILi167772161ELPv0EEEJEEDTgsnwcvS2_Li0E_T_pispcl7declvalIT0_EEEEPS4_DpOS5_, symObjAddr: 0x14C54, symBinAddr: 0x100015D60, symSize: 0x3C }
  - { offsetInCU: 0x42968, offset: 0x42968, size: 0x8, addend: 0x0, symName: __ZSt12__niter_baseIPN7atcoder13static_modintILi167772161ELPv0EEEET_S5_, symObjAddr: 0x14C90, symBinAddr: 0x100015D9C, symSize: 0x14 }
  - { offsetInCU: 0x429A0, offset: 0x429A0, size: 0x8, addend: 0x0, symName: __ZNSt15__new_allocatorIN7atcoder13static_modintILi167772161ELPv0EEEE8allocateEmPKv, symObjAddr: 0x14BD8, symBinAddr: 0x100015CE4, symSize: 0x7C }
  - { offsetInCU: 0x429A8, offset: 0x429A8, size: 0x8, addend: 0x0, symName: __ZSt12construct_atIN7atcoder13static_modintILi167772161ELPv0EEEJEEDTgsnwcvS2_Li0E_T_pispcl7declvalIT0_EEEEPS4_DpOS5_, symObjAddr: 0x14C54, symBinAddr: 0x100015D60, symSize: 0x3C }
  - { offsetInCU: 0x42A13, offset: 0x42A13, size: 0x8, addend: 0x0, symName: __ZSt14__relocate_a_1IPN7atcoder13static_modintILi754974721ELPv0EEES4_SaIS3_EET0_T_S7_S6_RT1_, symObjAddr: 0x14B54, symBinAddr: 0x100015C60, symSize: 0x84 }
  - { offsetInCU: 0x42A1B, offset: 0x42A1B, size: 0x8, addend: 0x0, symName: __ZNSt15__new_allocatorIN7atcoder13static_modintILi167772161ELPv0EEEE8allocateEmPKv, symObjAddr: 0x14BD8, symBinAddr: 0x100015CE4, symSize: 0x7C }
  - { offsetInCU: 0x42A9C, offset: 0x42A9C, size: 0x8, addend: 0x0, symName: __ZSt12__niter_baseIPN7atcoder13static_modintILi754974721ELPv0EEEET_S5_, symObjAddr: 0x14B40, symBinAddr: 0x100015C4C, symSize: 0x14 }
  - { offsetInCU: 0x42AA4, offset: 0x42AA4, size: 0x8, addend: 0x0, symName: __ZSt14__relocate_a_1IPN7atcoder13static_modintILi754974721ELPv0EEES4_SaIS3_EET0_T_S7_S6_RT1_, symObjAddr: 0x14B54, symBinAddr: 0x100015C60, symSize: 0x84 }
  - { offsetInCU: 0x42ACF, offset: 0x42ACF, size: 0x8, addend: 0x0, symName: __ZSt12construct_atIN7atcoder13static_modintILi754974721ELPv0EEEJEEDTgsnwcvS2_Li0E_T_pispcl7declvalIT0_EEEEPS4_DpOS5_, symObjAddr: 0x14B04, symBinAddr: 0x100015C10, symSize: 0x3C }
  - { offsetInCU: 0x42AD7, offset: 0x42AD7, size: 0x8, addend: 0x0, symName: __ZSt12__niter_baseIPN7atcoder13static_modintILi754974721ELPv0EEEET_S5_, symObjAddr: 0x14B40, symBinAddr: 0x100015C4C, symSize: 0x14 }
  - { offsetInCU: 0x42B0F, offset: 0x42B0F, size: 0x8, addend: 0x0, symName: __ZNSt15__new_allocatorIN7atcoder13static_modintILi754974721ELPv0EEEE8allocateEmPKv, symObjAddr: 0x14A88, symBinAddr: 0x100015B94, symSize: 0x7C }
  - { offsetInCU: 0x42B17, offset: 0x42B17, size: 0x8, addend: 0x0, symName: __ZSt12construct_atIN7atcoder13static_modintILi754974721ELPv0EEEJEEDTgsnwcvS2_Li0E_T_pispcl7declvalIT0_EEEEPS4_DpOS5_, symObjAddr: 0x14B04, symBinAddr: 0x100015C10, symSize: 0x3C }
  - { offsetInCU: 0x42B82, offset: 0x42B82, size: 0x8, addend: 0x0, symName: __ZSt14__relocate_a_1IPSt4pairIN7atcoder13static_modintILi998244353ELPv0EEES4_ES6_SaIS5_EET0_T_S9_S8_RT1_, symObjAddr: 0x14A04, symBinAddr: 0x100015B10, symSize: 0x84 }
  - { offsetInCU: 0x42B8A, offset: 0x42B8A, size: 0x8, addend: 0x0, symName: __ZNSt15__new_allocatorIN7atcoder13static_modintILi754974721ELPv0EEEE8allocateEmPKv, symObjAddr: 0x14A88, symBinAddr: 0x100015B94, symSize: 0x7C }
  - { offsetInCU: 0x42C0B, offset: 0x42C0B, size: 0x8, addend: 0x0, symName: __ZSt12__niter_baseIPSt4pairIN7atcoder13static_modintILi998244353ELPv0EEES4_EET_S7_, symObjAddr: 0x149F0, symBinAddr: 0x100015AFC, symSize: 0x14 }
  - { offsetInCU: 0x42C13, offset: 0x42C13, size: 0x8, addend: 0x0, symName: __ZSt14__relocate_a_1IPSt4pairIN7atcoder13static_modintILi998244353ELPv0EEES4_ES6_SaIS5_EET0_T_S9_S8_RT1_, symObjAddr: 0x14A04, symBinAddr: 0x100015B10, symSize: 0x84 }
  - { offsetInCU: 0x42C66, offset: 0x42C66, size: 0x8, addend: 0x0, symName: __ZNSt5dequeISt4pairIN7atcoder13static_modintILi998244353ELPv0EEES4_ESaIS5_EE17_M_reallocate_mapEmb, symObjAddr: 0x147B0, symBinAddr: 0x1000158BC, symSize: 0x240 }
  - { offsetInCU: 0x42C6E, offset: 0x42C6E, size: 0x8, addend: 0x0, symName: __ZSt12__niter_baseIPSt4pairIN7atcoder13static_modintILi998244353ELPv0EEES4_EET_S7_, symObjAddr: 0x149F0, symBinAddr: 0x100015AFC, symSize: 0x14 }
  - { offsetInCU: 0x42D18, offset: 0x42D18, size: 0x8, addend: 0x0, symName: __ZNSt5dequeISt4pairIN7atcoder13static_modintILi998244353ELPv0EEES4_ESaIS5_EE11_S_max_sizeERKS6_, symObjAddr: 0x14774, symBinAddr: 0x100015880, symSize: 0x3C }
  - { offsetInCU: 0x42D20, offset: 0x42D20, size: 0x8, addend: 0x0, symName: __ZNSt5dequeISt4pairIN7atcoder13static_modintILi998244353ELPv0EEES4_ESaIS5_EE17_M_reallocate_mapEmb, symObjAddr: 0x147B0, symBinAddr: 0x1000158BC, symSize: 0x240 }
  - { offsetInCU: 0x42D8E, offset: 0x42D8E, size: 0x8, addend: 0x0, symName: __ZStmiRKSt15_Deque_iteratorISt4pairIN7atcoder13static_modintILi998244353ELPv0EEES4_ERS5_PS5_ESA_, symObjAddr: 0x146E0, symBinAddr: 0x1000157EC, symSize: 0x94 }
  - { offsetInCU: 0x42D96, offset: 0x42D96, size: 0x8, addend: 0x0, symName: __ZNSt5dequeISt4pairIN7atcoder13static_modintILi998244353ELPv0EEES4_ESaIS5_EE11_S_max_sizeERKS6_, symObjAddr: 0x14774, symBinAddr: 0x100015880, symSize: 0x3C }
  - { offsetInCU: 0x42E04, offset: 0x42E04, size: 0x8, addend: 0x0, symName: __ZNSt11__copy_moveILb0ELb0ESt26random_access_iterator_tagE12__assign_oneIiiEEvPT_PT0_, symObjAddr: 0x146B8, symBinAddr: 0x1000157C4, symSize: 0x28 }
  - { offsetInCU: 0x42E0C, offset: 0x42E0C, size: 0x8, addend: 0x0, symName: __ZStmiRKSt15_Deque_iteratorISt4pairIN7atcoder13static_modintILi998244353ELPv0EEES4_ERS5_PS5_ESA_, symObjAddr: 0x146E0, symBinAddr: 0x1000157EC, symSize: 0x94 }
  - { offsetInCU: 0x42E51, offset: 0x42E51, size: 0x8, addend: 0x0, symName: __ZSt4copyIPKiPiET0_T_S4_S3_, symObjAddr: 0x14670, symBinAddr: 0x10001577C, symSize: 0x48 }
  - { offsetInCU: 0x42E59, offset: 0x42E59, size: 0x8, addend: 0x0, symName: __ZNSt11__copy_moveILb0ELb0ESt26random_access_iterator_tagE12__assign_oneIiiEEvPT_PT0_, symObjAddr: 0x146B8, symBinAddr: 0x1000157C4, symSize: 0x28 }
  - { offsetInCU: 0x42EAF, offset: 0x42EAF, size: 0x8, addend: 0x0, symName: __ZSt13__adjust_heapIN9__gnu_cxx17__normal_iteratorIPiSt6vectorIiSaIiEEEEliNS0_5__ops15_Iter_comp_iterIZN7atcoder8internal11sa_doublingERKS5_EUliiE_EEEvT_T0_SG_T1_T2_, symObjAddr: 0x1449C, symBinAddr: 0x1000155A8, symSize: 0x1D4 }
  - { offsetInCU: 0x42EB7, offset: 0x42EB7, size: 0x8, addend: 0x0, symName: __ZSt4copyIPKiPiET0_T_S4_S3_, symObjAddr: 0x14670, symBinAddr: 0x10001577C, symSize: 0x48 }
  - { offsetInCU: 0x42F9A, offset: 0x42F9A, size: 0x8, addend: 0x0, symName: __ZN9__gnu_cxx5__ops14_Iter_comp_valIZN7atcoder8internal11sa_doublingERKSt6vectorIiSaIiEEEUliiE_EC1EONS0_15_Iter_comp_iterIS9_EE, symObjAddr: 0x14458, symBinAddr: 0x100015564, symSize: 0x44 }
  - { offsetInCU: 0x42FA2, offset: 0x42FA2, size: 0x8, addend: 0x0, symName: __ZSt13__adjust_heapIN9__gnu_cxx17__normal_iteratorIPiSt6vectorIiSaIiEEEEliNS0_5__ops15_Iter_comp_iterIZN7atcoder8internal11sa_doublingERKS5_EUliiE_EEEvT_T0_SG_T1_T2_, symObjAddr: 0x1449C, symBinAddr: 0x1000155A8, symSize: 0x1D4 }
  - { offsetInCU: 0x42FC4, offset: 0x42FC4, size: 0x8, addend: 0x0, symName: __ZSt12__niter_wrapIPiET_RKS1_S1_, symObjAddr: 0x14440, symBinAddr: 0x10001554C, symSize: 0x18 }
  - { offsetInCU: 0x42FCC, offset: 0x42FCC, size: 0x8, addend: 0x0, symName: __ZN9__gnu_cxx5__ops14_Iter_comp_valIZN7atcoder8internal11sa_doublingERKSt6vectorIiSaIiEEEUliiE_EC1EONS0_15_Iter_comp_iterIS9_EE, symObjAddr: 0x14458, symBinAddr: 0x100015564, symSize: 0x44 }
  - { offsetInCU: 0x43000, offset: 0x43000, size: 0x8, addend: 0x0, symName: __ZSt14__copy_move_a1ILb0EPKiPiET1_T0_S4_S3_, symObjAddr: 0x14414, symBinAddr: 0x100015520, symSize: 0x2C }
  - { offsetInCU: 0x43008, offset: 0x43008, size: 0x8, addend: 0x0, symName: __ZSt12__niter_wrapIPiET_RKS1_S1_, symObjAddr: 0x14440, symBinAddr: 0x10001554C, symSize: 0x18 }
  - { offsetInCU: 0x43068, offset: 0x43068, size: 0x8, addend: 0x0, symName: __ZSt12__niter_baseIPKiSt6vectorIiSaIiEEET_N9__gnu_cxx17__normal_iteratorIS5_T0_EE, symObjAddr: 0x143F4, symBinAddr: 0x100015500, symSize: 0x20 }
  - { offsetInCU: 0x43070, offset: 0x43070, size: 0x8, addend: 0x0, symName: __ZSt14__copy_move_a1ILb0EPKiPiET1_T0_S4_S3_, symObjAddr: 0x14414, symBinAddr: 0x100015520, symSize: 0x2C }
  - { offsetInCU: 0x430A4, offset: 0x430A4, size: 0x8, addend: 0x0, symName: __ZSt23__copy_move_backward_a1ILb1EPiS0_ET1_T0_S2_S1_, symObjAddr: 0x143C8, symBinAddr: 0x1000154D4, symSize: 0x2C }
  - { offsetInCU: 0x430AC, offset: 0x430AC, size: 0x8, addend: 0x0, symName: __ZSt12__niter_baseIPKiSt6vectorIiSaIiEEET_N9__gnu_cxx17__normal_iteratorIS5_T0_EE, symObjAddr: 0x143F4, symBinAddr: 0x100015500, symSize: 0x20 }
  - { offsetInCU: 0x4310C, offset: 0x4310C, size: 0x8, addend: 0x0, symName: __ZSt13__adjust_heapIN9__gnu_cxx17__normal_iteratorIPiSt6vectorIiSaIiEEEEliNS0_5__ops15_Iter_comp_iterIZN7atcoder8internal8sa_naiveERKS5_EUliiE_EEEvT_T0_SG_T1_T2_, symObjAddr: 0x141F0, symBinAddr: 0x1000152FC, symSize: 0x1D8 }
  - { offsetInCU: 0x43114, offset: 0x43114, size: 0x8, addend: 0x0, symName: __ZSt23__copy_move_backward_a1ILb1EPiS0_ET1_T0_S2_S1_, symObjAddr: 0x143C8, symBinAddr: 0x1000154D4, symSize: 0x2C }
  - { offsetInCU: 0x431F7, offset: 0x431F7, size: 0x8, addend: 0x0, symName: __ZN9__gnu_cxx5__ops14_Iter_comp_valIZN7atcoder8internal8sa_naiveERKSt6vectorIiSaIiEEEUliiE_EC1EONS0_15_Iter_comp_iterIS9_EE, symObjAddr: 0x141C0, symBinAddr: 0x1000152CC, symSize: 0x30 }
  - { offsetInCU: 0x431FF, offset: 0x431FF, size: 0x8, addend: 0x0, symName: __ZSt13__adjust_heapIN9__gnu_cxx17__normal_iteratorIPiSt6vectorIiSaIiEEEEliNS0_5__ops15_Iter_comp_iterIZN7atcoder8internal8sa_naiveERKS5_EUliiE_EEEvT_T0_SG_T1_T2_, symObjAddr: 0x141F0, symBinAddr: 0x1000152FC, symSize: 0x1D8 }
  - { offsetInCU: 0x43265, offset: 0x43265, size: 0x8, addend: 0x0, symName: __ZSt12construct_atIiJEEDTgsnwcvPvLi0E_T_pispcl7declvalIT0_EEEEPS1_DpOS2_, symObjAddr: 0x14198, symBinAddr: 0x1000152A4, symSize: 0x28 }
  - { offsetInCU: 0x4326D, offset: 0x4326D, size: 0x8, addend: 0x0, symName: __ZN9__gnu_cxx5__ops14_Iter_comp_valIZN7atcoder8internal8sa_naiveERKSt6vectorIiSaIiEEEUliiE_EC1EONS0_15_Iter_comp_iterIS9_EE, symObjAddr: 0x141C0, symBinAddr: 0x1000152CC, symSize: 0x30 }
  - { offsetInCU: 0x432A1, offset: 0x432A1, size: 0x8, addend: 0x0, symName: __ZSt10__fill_n_aIPimiET_S1_T0_RKT1_St26random_access_iterator_tag, symObjAddr: 0x14134, symBinAddr: 0x100015240, symSize: 0x64 }
  - { offsetInCU: 0x432A9, offset: 0x432A9, size: 0x8, addend: 0x0, symName: __ZSt12construct_atIiJEEDTgsnwcvPvLi0E_T_pispcl7declvalIT0_EEEEPS1_DpOS2_, symObjAddr: 0x14198, symBinAddr: 0x1000152A4, symSize: 0x28 }
  - { offsetInCU: 0x43327, offset: 0x43327, size: 0x8, addend: 0x0, symName: __ZSt10__fill_n_aIPxmxET_S1_T0_RKT1_St26random_access_iterator_tag, symObjAddr: 0x140D0, symBinAddr: 0x1000151DC, symSize: 0x64 }
  - { offsetInCU: 0x4332F, offset: 0x4332F, size: 0x8, addend: 0x0, symName: __ZSt10__fill_n_aIPimiET_S1_T0_RKT1_St26random_access_iterator_tag, symObjAddr: 0x14134, symBinAddr: 0x100015240, symSize: 0x64 }
  - { offsetInCU: 0x433B3, offset: 0x433B3, size: 0x8, addend: 0x0, symName: __ZSt12construct_atIxJEEDTgsnwcvPvLi0E_T_pispcl7declvalIT0_EEEEPS1_DpOS2_, symObjAddr: 0x140A8, symBinAddr: 0x1000151B4, symSize: 0x28 }
  - { offsetInCU: 0x433BB, offset: 0x433BB, size: 0x8, addend: 0x0, symName: __ZSt10__fill_n_aIPxmxET_S1_T0_RKT1_St26random_access_iterator_tag, symObjAddr: 0x140D0, symBinAddr: 0x1000151DC, symSize: 0x64 }
  - { offsetInCU: 0x433F3, offset: 0x433F3, size: 0x8, addend: 0x0, symName: __ZNSt15__new_allocatorIxE8allocateEmPKv, symObjAddr: 0x1402C, symBinAddr: 0x100015138, symSize: 0x7C }
  - { offsetInCU: 0x433FB, offset: 0x433FB, size: 0x8, addend: 0x0, symName: __ZSt12construct_atIxJEEDTgsnwcvPvLi0E_T_pispcl7declvalIT0_EEEEPS1_DpOS2_, symObjAddr: 0x140A8, symBinAddr: 0x1000151B4, symSize: 0x28 }
  - { offsetInCU: 0x43466, offset: 0x43466, size: 0x8, addend: 0x0, symName: __ZSt12__relocate_aIPN7atcoder13static_modintILi469762049ELPv0EEES4_SaIS3_EET0_T_S7_S6_RT1_, symObjAddr: 0x13FD0, symBinAddr: 0x1000150DC, symSize: 0x5C }
  - { offsetInCU: 0x4346E, offset: 0x4346E, size: 0x8, addend: 0x0, symName: __ZNSt15__new_allocatorIxE8allocateEmPKv, symObjAddr: 0x1402C, symBinAddr: 0x100015138, symSize: 0x7C }
  - { offsetInCU: 0x434DE, offset: 0x434DE, size: 0x8, addend: 0x0, symName: __ZSt12construct_atIN7atcoder13static_modintILi469762049ELPv0EEEJRKS3_EEDTgsnwcvS2_Li0E_T_pispcl7declvalIT0_EEEEPS6_DpOS7_, symObjAddr: 0x13F88, symBinAddr: 0x100015094, symSize: 0x48 }
  - { offsetInCU: 0x434E6, offset: 0x434E6, size: 0x8, addend: 0x0, symName: __ZSt12__relocate_aIPN7atcoder13static_modintILi469762049ELPv0EEES4_SaIS3_EET0_T_S7_S6_RT1_, symObjAddr: 0x13FD0, symBinAddr: 0x1000150DC, symSize: 0x5C }
  - { offsetInCU: 0x43530, offset: 0x43530, size: 0x8, addend: 0x0, symName: __ZSt7forwardIRKN7atcoder13static_modintILi469762049ELPv0EEEEOT_RNSt16remove_referenceIS6_E4typeE, symObjAddr: 0x13F74, symBinAddr: 0x100015080, symSize: 0x14 }
  - { offsetInCU: 0x43538, offset: 0x43538, size: 0x8, addend: 0x0, symName: __ZSt12construct_atIN7atcoder13static_modintILi469762049ELPv0EEEJRKS3_EEDTgsnwcvS2_Li0E_T_pispcl7declvalIT0_EEEEPS6_DpOS7_, symObjAddr: 0x13F88, symBinAddr: 0x100015094, symSize: 0x48 }
  - { offsetInCU: 0x43562, offset: 0x43562, size: 0x8, addend: 0x0, symName: __ZSt10destroy_atIN7atcoder13static_modintILi469762049ELPv0EEEEvPT_, symObjAddr: 0x13F60, symBinAddr: 0x10001506C, symSize: 0x14 }
  - { offsetInCU: 0x4356A, offset: 0x4356A, size: 0x8, addend: 0x0, symName: __ZSt7forwardIRKN7atcoder13static_modintILi469762049ELPv0EEEEOT_RNSt16remove_referenceIS6_E4typeE, symObjAddr: 0x13F74, symBinAddr: 0x100015080, symSize: 0x14 }
  - { offsetInCU: 0x43594, offset: 0x43594, size: 0x8, addend: 0x0, symName: __ZSt10_ConstructIN7atcoder13static_modintILi469762049ELPv0EEEJEEvPT_DpOT0_, symObjAddr: 0x13F18, symBinAddr: 0x100015024, symSize: 0x48 }
  - { offsetInCU: 0x4359C, offset: 0x4359C, size: 0x8, addend: 0x0, symName: __ZSt10destroy_atIN7atcoder13static_modintILi469762049ELPv0EEEEvPT_, symObjAddr: 0x13F60, symBinAddr: 0x10001506C, symSize: 0x14 }
  - { offsetInCU: 0x435D4, offset: 0x435D4, size: 0x8, addend: 0x0, symName: __ZNSt15__new_allocatorIN7atcoder13static_modintILi469762049ELPv0EEEE10deallocateEPS3_m, symObjAddr: 0x13EE8, symBinAddr: 0x100014FF4, symSize: 0x30 }
  - { offsetInCU: 0x435DC, offset: 0x435DC, size: 0x8, addend: 0x0, symName: __ZSt10_ConstructIN7atcoder13static_modintILi469762049ELPv0EEEJEEvPT_DpOT0_, symObjAddr: 0x13F18, symBinAddr: 0x100015024, symSize: 0x48 }
  - { offsetInCU: 0x4363F, offset: 0x4363F, size: 0x8, addend: 0x0, symName: __ZSt12__relocate_aIPN7atcoder13static_modintILi167772161ELPv0EEES4_SaIS3_EET0_T_S7_S6_RT1_, symObjAddr: 0x13E8C, symBinAddr: 0x100014F98, symSize: 0x5C }
  - { offsetInCU: 0x43647, offset: 0x43647, size: 0x8, addend: 0x0, symName: __ZNSt15__new_allocatorIN7atcoder13static_modintILi469762049ELPv0EEEE10deallocateEPS3_m, symObjAddr: 0x13EE8, symBinAddr: 0x100014FF4, symSize: 0x30 }
  - { offsetInCU: 0x436B7, offset: 0x436B7, size: 0x8, addend: 0x0, symName: __ZSt12construct_atIN7atcoder13static_modintILi167772161ELPv0EEEJRKS3_EEDTgsnwcvS2_Li0E_T_pispcl7declvalIT0_EEEEPS6_DpOS7_, symObjAddr: 0x13E44, symBinAddr: 0x100014F50, symSize: 0x48 }
  - { offsetInCU: 0x436BF, offset: 0x436BF, size: 0x8, addend: 0x0, symName: __ZSt12__relocate_aIPN7atcoder13static_modintILi167772161ELPv0EEES4_SaIS3_EET0_T_S7_S6_RT1_, symObjAddr: 0x13E8C, symBinAddr: 0x100014F98, symSize: 0x5C }
  - { offsetInCU: 0x43709, offset: 0x43709, size: 0x8, addend: 0x0, symName: __ZSt7forwardIRKN7atcoder13static_modintILi167772161ELPv0EEEEOT_RNSt16remove_referenceIS6_E4typeE, symObjAddr: 0x13E30, symBinAddr: 0x100014F3C, symSize: 0x14 }
  - { offsetInCU: 0x43711, offset: 0x43711, size: 0x8, addend: 0x0, symName: __ZSt12construct_atIN7atcoder13static_modintILi167772161ELPv0EEEJRKS3_EEDTgsnwcvS2_Li0E_T_pispcl7declvalIT0_EEEEPS6_DpOS7_, symObjAddr: 0x13E44, symBinAddr: 0x100014F50, symSize: 0x48 }
  - { offsetInCU: 0x4373B, offset: 0x4373B, size: 0x8, addend: 0x0, symName: __ZSt10destroy_atIN7atcoder13static_modintILi167772161ELPv0EEEEvPT_, symObjAddr: 0x13E1C, symBinAddr: 0x100014F28, symSize: 0x14 }
  - { offsetInCU: 0x43743, offset: 0x43743, size: 0x8, addend: 0x0, symName: __ZSt7forwardIRKN7atcoder13static_modintILi167772161ELPv0EEEEOT_RNSt16remove_referenceIS6_E4typeE, symObjAddr: 0x13E30, symBinAddr: 0x100014F3C, symSize: 0x14 }
  - { offsetInCU: 0x4376D, offset: 0x4376D, size: 0x8, addend: 0x0, symName: __ZSt10_ConstructIN7atcoder13static_modintILi167772161ELPv0EEEJEEvPT_DpOT0_, symObjAddr: 0x13DD4, symBinAddr: 0x100014EE0, symSize: 0x48 }
  - { offsetInCU: 0x43775, offset: 0x43775, size: 0x8, addend: 0x0, symName: __ZSt10destroy_atIN7atcoder13static_modintILi167772161ELPv0EEEEvPT_, symObjAddr: 0x13E1C, symBinAddr: 0x100014F28, symSize: 0x14 }
  - { offsetInCU: 0x437AD, offset: 0x437AD, size: 0x8, addend: 0x0, symName: __ZNSt15__new_allocatorIN7atcoder13static_modintILi167772161ELPv0EEEE10deallocateEPS3_m, symObjAddr: 0x13DA4, symBinAddr: 0x100014EB0, symSize: 0x30 }
  - { offsetInCU: 0x437B5, offset: 0x437B5, size: 0x8, addend: 0x0, symName: __ZSt10_ConstructIN7atcoder13static_modintILi167772161ELPv0EEEJEEvPT_DpOT0_, symObjAddr: 0x13DD4, symBinAddr: 0x100014EE0, symSize: 0x48 }
  - { offsetInCU: 0x43818, offset: 0x43818, size: 0x8, addend: 0x0, symName: __ZSt12__relocate_aIPN7atcoder13static_modintILi754974721ELPv0EEES4_SaIS3_EET0_T_S7_S6_RT1_, symObjAddr: 0x13D48, symBinAddr: 0x100014E54, symSize: 0x5C }
  - { offsetInCU: 0x43820, offset: 0x43820, size: 0x8, addend: 0x0, symName: __ZNSt15__new_allocatorIN7atcoder13static_modintILi167772161ELPv0EEEE10deallocateEPS3_m, symObjAddr: 0x13DA4, symBinAddr: 0x100014EB0, symSize: 0x30 }
  - { offsetInCU: 0x43890, offset: 0x43890, size: 0x8, addend: 0x0, symName: __ZSt12construct_atIN7atcoder13static_modintILi754974721ELPv0EEEJRKS3_EEDTgsnwcvS2_Li0E_T_pispcl7declvalIT0_EEEEPS6_DpOS7_, symObjAddr: 0x13D00, symBinAddr: 0x100014E0C, symSize: 0x48 }
  - { offsetInCU: 0x43898, offset: 0x43898, size: 0x8, addend: 0x0, symName: __ZSt12__relocate_aIPN7atcoder13static_modintILi754974721ELPv0EEES4_SaIS3_EET0_T_S7_S6_RT1_, symObjAddr: 0x13D48, symBinAddr: 0x100014E54, symSize: 0x5C }
  - { offsetInCU: 0x438E2, offset: 0x438E2, size: 0x8, addend: 0x0, symName: __ZSt7forwardIRKN7atcoder13static_modintILi754974721ELPv0EEEEOT_RNSt16remove_referenceIS6_E4typeE, symObjAddr: 0x13CEC, symBinAddr: 0x100014DF8, symSize: 0x14 }
  - { offsetInCU: 0x438EA, offset: 0x438EA, size: 0x8, addend: 0x0, symName: __ZSt12construct_atIN7atcoder13static_modintILi754974721ELPv0EEEJRKS3_EEDTgsnwcvS2_Li0E_T_pispcl7declvalIT0_EEEEPS6_DpOS7_, symObjAddr: 0x13D00, symBinAddr: 0x100014E0C, symSize: 0x48 }
  - { offsetInCU: 0x43914, offset: 0x43914, size: 0x8, addend: 0x0, symName: __ZSt10destroy_atIN7atcoder13static_modintILi754974721ELPv0EEEEvPT_, symObjAddr: 0x13CD8, symBinAddr: 0x100014DE4, symSize: 0x14 }
  - { offsetInCU: 0x4391C, offset: 0x4391C, size: 0x8, addend: 0x0, symName: __ZSt7forwardIRKN7atcoder13static_modintILi754974721ELPv0EEEEOT_RNSt16remove_referenceIS6_E4typeE, symObjAddr: 0x13CEC, symBinAddr: 0x100014DF8, symSize: 0x14 }
  - { offsetInCU: 0x43946, offset: 0x43946, size: 0x8, addend: 0x0, symName: __ZSt10_ConstructIN7atcoder13static_modintILi754974721ELPv0EEEJEEvPT_DpOT0_, symObjAddr: 0x13C90, symBinAddr: 0x100014D9C, symSize: 0x48 }
  - { offsetInCU: 0x4394E, offset: 0x4394E, size: 0x8, addend: 0x0, symName: __ZSt10destroy_atIN7atcoder13static_modintILi754974721ELPv0EEEEvPT_, symObjAddr: 0x13CD8, symBinAddr: 0x100014DE4, symSize: 0x14 }
  - { offsetInCU: 0x43986, offset: 0x43986, size: 0x8, addend: 0x0, symName: __ZNSt15__new_allocatorIN7atcoder13static_modintILi754974721ELPv0EEEE10deallocateEPS3_m, symObjAddr: 0x13C60, symBinAddr: 0x100014D6C, symSize: 0x30 }
  - { offsetInCU: 0x4398E, offset: 0x4398E, size: 0x8, addend: 0x0, symName: __ZSt10_ConstructIN7atcoder13static_modintILi754974721ELPv0EEEJEEvPT_DpOT0_, symObjAddr: 0x13C90, symBinAddr: 0x100014D9C, symSize: 0x48 }
  - { offsetInCU: 0x439F1, offset: 0x439F1, size: 0x8, addend: 0x0, symName: __ZSt12__relocate_aIPSt4pairIN7atcoder13static_modintILi998244353ELPv0EEES4_ES6_SaIS5_EET0_T_S9_S8_RT1_, symObjAddr: 0x13C04, symBinAddr: 0x100014D10, symSize: 0x5C }
  - { offsetInCU: 0x439F9, offset: 0x439F9, size: 0x8, addend: 0x0, symName: __ZNSt15__new_allocatorIN7atcoder13static_modintILi754974721ELPv0EEEE10deallocateEPS3_m, symObjAddr: 0x13C60, symBinAddr: 0x100014D6C, symSize: 0x30 }
  - { offsetInCU: 0x43A91, offset: 0x43A91, size: 0x8, addend: 0x0, symName: __ZNKSt12_Vector_baseISt4pairIN7atcoder13static_modintILi998244353ELPv0EEES4_ESaIS5_EE19_M_get_Tp_allocatorEv, symObjAddr: 0x13BF0, symBinAddr: 0x100014CFC, symSize: 0x14 }
  - { offsetInCU: 0x43A99, offset: 0x43A99, size: 0x8, addend: 0x0, symName: __ZSt12__relocate_aIPSt4pairIN7atcoder13static_modintILi998244353ELPv0EEES4_ES6_SaIS5_EET0_T_S9_S8_RT1_, symObjAddr: 0x13C04, symBinAddr: 0x100014D10, symSize: 0x5C }
  - { offsetInCU: 0x43AB8, offset: 0x43AB8, size: 0x8, addend: 0x0, symName: __ZNSt6vectorISt4pairIN7atcoder13static_modintILi998244353ELPv0EEES4_ESaIS5_EE11_S_max_sizeERKS6_, symObjAddr: 0x13BB4, symBinAddr: 0x100014CC0, symSize: 0x3C }
  - { offsetInCU: 0x43AC0, offset: 0x43AC0, size: 0x8, addend: 0x0, symName: __ZNKSt12_Vector_baseISt4pairIN7atcoder13static_modintILi998244353ELPv0EEES4_ESaIS5_EE19_M_get_Tp_allocatorEv, symObjAddr: 0x13BF0, symBinAddr: 0x100014CFC, symSize: 0x14 }
  - { offsetInCU: 0x43B3E, offset: 0x43B3E, size: 0x8, addend: 0x0, symName: __ZSt10destroy_atISt4pairIN7atcoder13static_modintILi998244353ELPv0EEES4_EEvPT_, symObjAddr: 0x13BA0, symBinAddr: 0x100014CAC, symSize: 0x14 }
  - { offsetInCU: 0x43B46, offset: 0x43B46, size: 0x8, addend: 0x0, symName: __ZNSt6vectorISt4pairIN7atcoder13static_modintILi998244353ELPv0EEES4_ESaIS5_EE11_S_max_sizeERKS6_, symObjAddr: 0x13BB4, symBinAddr: 0x100014CC0, symSize: 0x3C }
  - { offsetInCU: 0x43B70, offset: 0x43B70, size: 0x8, addend: 0x0, symName: __ZSt8_DestroyISt4pairIN7atcoder13static_modintILi998244353ELPv0EEES4_EEvPT_, symObjAddr: 0x13B80, symBinAddr: 0x100014C8C, symSize: 0x20 }
  - { offsetInCU: 0x43B78, offset: 0x43B78, size: 0x8, addend: 0x0, symName: __ZSt10destroy_atISt4pairIN7atcoder13static_modintILi998244353ELPv0EEES4_EEvPT_, symObjAddr: 0x13BA0, symBinAddr: 0x100014CAC, symSize: 0x14 }
  - { offsetInCU: 0x43BA2, offset: 0x43BA2, size: 0x8, addend: 0x0, symName: __ZSt11__addressofISt4pairIN7atcoder13static_modintILi998244353ELPv0EEES4_EEPT_RS6_, symObjAddr: 0x13B6C, symBinAddr: 0x100014C78, symSize: 0x14 }
  - { offsetInCU: 0x43BAA, offset: 0x43BAA, size: 0x8, addend: 0x0, symName: __ZSt8_DestroyISt4pairIN7atcoder13static_modintILi998244353ELPv0EEES4_EEvPT_, symObjAddr: 0x13B80, symBinAddr: 0x100014C8C, symSize: 0x20 }
  - { offsetInCU: 0x43BD8, offset: 0x43BD8, size: 0x8, addend: 0x0, symName: __ZNSt15__new_allocatorISt4pairIN7atcoder13static_modintILi998244353ELPv0EEES4_EE10deallocateEPS5_m, symObjAddr: 0x13B3C, symBinAddr: 0x100014C48, symSize: 0x30 }
  - { offsetInCU: 0x43BE0, offset: 0x43BE0, size: 0x8, addend: 0x0, symName: __ZSt11__addressofISt4pairIN7atcoder13static_modintILi998244353ELPv0EEES4_EEPT_RS6_, symObjAddr: 0x13B6C, symBinAddr: 0x100014C78, symSize: 0x14 }
  - { offsetInCU: 0x43C1F, offset: 0x43C1F, size: 0x8, addend: 0x0, symName: __ZSt12construct_atISt4pairIN7atcoder13static_modintILi998244353ELPv0EEES4_EJRKS5_EEDTgsnwcvS3_Li0E_T_pispcl7declvalIT0_EEEEPS8_DpOS9_, symObjAddr: 0x13AF4, symBinAddr: 0x100014C00, symSize: 0x48 }
  - { offsetInCU: 0x43C27, offset: 0x43C27, size: 0x8, addend: 0x0, symName: __ZNSt15__new_allocatorISt4pairIN7atcoder13static_modintILi998244353ELPv0EEES4_EE10deallocateEPS5_m, symObjAddr: 0x13B3C, symBinAddr: 0x100014C48, symSize: 0x30 }
  - { offsetInCU: 0x43C71, offset: 0x43C71, size: 0x8, addend: 0x0, symName: __ZSt7forwardIRKSt4pairIN7atcoder13static_modintILi998244353ELPv0EEES4_EEOT_RNSt16remove_referenceIS8_E4typeE, symObjAddr: 0x13AE0, symBinAddr: 0x100014BEC, symSize: 0x14 }
  - { offsetInCU: 0x43C79, offset: 0x43C79, size: 0x8, addend: 0x0, symName: __ZSt12construct_atISt4pairIN7atcoder13static_modintILi998244353ELPv0EEES4_EJRKS5_EEDTgsnwcvS3_Li0E_T_pispcl7declvalIT0_EEEEPS8_DpOS9_, symObjAddr: 0x13AF4, symBinAddr: 0x100014C00, symSize: 0x48 }
  - { offsetInCU: 0x43CA7, offset: 0x43CA7, size: 0x8, addend: 0x0, symName: __ZNSt15__new_allocatorIPSt4pairIN7atcoder13static_modintILi998244353ELPv0EEES4_EE10deallocateEPS6_m, symObjAddr: 0x13AB0, symBinAddr: 0x100014BBC, symSize: 0x30 }
  - { offsetInCU: 0x43CAF, offset: 0x43CAF, size: 0x8, addend: 0x0, symName: __ZSt7forwardIRKSt4pairIN7atcoder13static_modintILi998244353ELPv0EEES4_EEOT_RNSt16remove_referenceIS8_E4typeE, symObjAddr: 0x13AE0, symBinAddr: 0x100014BEC, symSize: 0x14 }
  - { offsetInCU: 0x43D09, offset: 0x43D09, size: 0x8, addend: 0x0, symName: __ZNSt5dequeISt4pairIN7atcoder13static_modintILi998244353ELPv0EEES4_ESaIS5_EE22_M_reserve_map_at_backEm, symObjAddr: 0x13A50, symBinAddr: 0x100014B5C, symSize: 0x60 }
  - { offsetInCU: 0x43D11, offset: 0x43D11, size: 0x8, addend: 0x0, symName: __ZNSt15__new_allocatorIPSt4pairIN7atcoder13static_modintILi998244353ELPv0EEES4_EE10deallocateEPS6_m, symObjAddr: 0x13AB0, symBinAddr: 0x100014BBC, symSize: 0x30 }
  - { offsetInCU: 0x43D45, offset: 0x43D45, size: 0x8, addend: 0x0, symName: __ZNKSt5dequeISt4pairIN7atcoder13static_modintILi998244353ELPv0EEES4_ESaIS5_EE8max_sizeEv, symObjAddr: 0x13A30, symBinAddr: 0x100014B3C, symSize: 0x20 }
  - { offsetInCU: 0x43D4D, offset: 0x43D4D, size: 0x8, addend: 0x0, symName: __ZNSt5dequeISt4pairIN7atcoder13static_modintILi998244353ELPv0EEES4_ESaIS5_EE22_M_reserve_map_at_backEm, symObjAddr: 0x13A50, symBinAddr: 0x100014B5C, symSize: 0x60 }
  - { offsetInCU: 0x43D70, offset: 0x43D70, size: 0x8, addend: 0x0, symName: __ZNKSt5dequeISt4pairIN7atcoder13static_modintILi998244353ELPv0EEES4_ESaIS5_EE4sizeEv, symObjAddr: 0x13A00, symBinAddr: 0x100014B0C, symSize: 0x30 }
  - { offsetInCU: 0x43D78, offset: 0x43D78, size: 0x8, addend: 0x0, symName: __ZNKSt5dequeISt4pairIN7atcoder13static_modintILi998244353ELPv0EEES4_ESaIS5_EE8max_sizeEv, symObjAddr: 0x13A30, symBinAddr: 0x100014B3C, symSize: 0x20 }
  - { offsetInCU: 0x43D98, offset: 0x43D98, size: 0x8, addend: 0x0, symName: __ZNSt15_Deque_iteratorISt4pairIN7atcoder13static_modintILi998244353ELPv0EEES4_ERS5_PS5_E14_S_buffer_sizeEv, symObjAddr: 0x139E8, symBinAddr: 0x100014AF4, symSize: 0x18 }
  - { offsetInCU: 0x43DA0, offset: 0x43DA0, size: 0x8, addend: 0x0, symName: __ZNKSt5dequeISt4pairIN7atcoder13static_modintILi998244353ELPv0EEES4_ESaIS5_EE4sizeEv, symObjAddr: 0x13A00, symBinAddr: 0x100014B0C, symSize: 0x30 }
  - { offsetInCU: 0x43DB3, offset: 0x43DB3, size: 0x8, addend: 0x0, symName: __ZNSt11_Deque_baseISt4pairIN7atcoder13static_modintILi998244353ELPv0EEES4_ESaIS5_EE16_M_allocate_nodeEv, symObjAddr: 0x1392C, symBinAddr: 0x100014A38, symSize: 0xBC }
  - { offsetInCU: 0x43DBB, offset: 0x43DBB, size: 0x8, addend: 0x0, symName: __ZNSt15_Deque_iteratorISt4pairIN7atcoder13static_modintILi998244353ELPv0EEES4_ERS5_PS5_E14_S_buffer_sizeEv, symObjAddr: 0x139E8, symBinAddr: 0x100014AF4, symSize: 0x18 }
  - { offsetInCU: 0x43ED0, offset: 0x43ED0, size: 0x8, addend: 0x0, symName: __ZNSt15_Deque_iteratorISt4pairIN7atcoder13static_modintILi998244353ELPv0EEES4_ERS5_PS5_EC1Ev, symObjAddr: 0x138F8, symBinAddr: 0x100014A04, symSize: 0x34 }
  - { offsetInCU: 0x43ED8, offset: 0x43ED8, size: 0x8, addend: 0x0, symName: __ZNSt11_Deque_baseISt4pairIN7atcoder13static_modintILi998244353ELPv0EEES4_ESaIS5_EE16_M_allocate_nodeEv, symObjAddr: 0x1392C, symBinAddr: 0x100014A38, symSize: 0xBC }
  - { offsetInCU: 0x43E9D, offset: 0x43E9D, size: 0x8, addend: 0x0, symName: __ZNSt15__new_allocatorImE8allocateEmPKv, symObjAddr: 0x1387C, symBinAddr: 0x100014988, symSize: 0x7C }
  - { offsetInCU: 0x43EA5, offset: 0x43EA5, size: 0x8, addend: 0x0, symName: __ZNSt15_Deque_iteratorISt4pairIN7atcoder13static_modintILi998244353ELPv0EEES4_ERS5_PS5_EC1Ev, symObjAddr: 0x138F8, symBinAddr: 0x100014A04, symSize: 0x34 }
  - { offsetInCU: 0x43F10, offset: 0x43F10, size: 0x8, addend: 0x0, symName: __ZNSt11__copy_moveILb0ELb1ESt26random_access_iterator_tagE8__copy_mIiiEEPT0_PT_S6_S4_, symObjAddr: 0x137EC, symBinAddr: 0x1000148F8, symSize: 0x90 }
  - { offsetInCU: 0x43F18, offset: 0x43F18, size: 0x8, addend: 0x0, symName: __ZNSt15__new_allocatorImE8allocateEmPKv, symObjAddr: 0x1387C, symBinAddr: 0x100014988, symSize: 0x7C }
  - { offsetInCU: 0x43F7F, offset: 0x43F7F, size: 0x8, addend: 0x0, symName: __ZNSt11__copy_moveILb0ELb0ESt26random_access_iterator_tagE8__copy_mIPiS3_EET0_T_S5_S4_, symObjAddr: 0x13778, symBinAddr: 0x100014884, symSize: 0x74 }
  - { offsetInCU: 0x43F87, offset: 0x43F87, size: 0x8, addend: 0x0, symName: __ZNSt11__copy_moveILb0ELb1ESt26random_access_iterator_tagE8__copy_mIiiEEPT0_PT_S6_S4_, symObjAddr: 0x137EC, symBinAddr: 0x1000148F8, symSize: 0x90 }
  - { offsetInCU: 0x4400E, offset: 0x4400E, size: 0x8, addend: 0x0, symName: __ZNSt20__uninitialized_copyILb1EE13__uninit_copyIPKiPiEET0_T_S6_S5_, symObjAddr: 0x1374C, symBinAddr: 0x100014858, symSize: 0x2C }
  - { offsetInCU: 0x44016, offset: 0x44016, size: 0x8, addend: 0x0, symName: __ZNSt11__copy_moveILb0ELb0ESt26random_access_iterator_tagE8__copy_mIPiS3_EET0_T_S5_S4_, symObjAddr: 0x13778, symBinAddr: 0x100014884, symSize: 0x74 }
  - { offsetInCU: 0x4406D, offset: 0x4406D, size: 0x8, addend: 0x0, symName: __ZN9__gnu_cxx5__ops14_Val_comp_iterIZN7atcoder8internal11sa_doublingERKSt6vectorIiSaIiEEEUliiE_EclIiNS_17__normal_iteratorIPiS6_EEEEbRT_T0_, symObjAddr: 0x136FC, symBinAddr: 0x100014808, symSize: 0x50 }
  - { offsetInCU: 0x44075, offset: 0x44075, size: 0x8, addend: 0x0, symName: __ZNSt20__uninitialized_copyILb1EE13__uninit_copyIPKiPiEET0_T_S6_S5_, symObjAddr: 0x1374C, symBinAddr: 0x100014858, symSize: 0x2C }
  - { offsetInCU: 0x440EF, offset: 0x440EF, size: 0x8, addend: 0x0, symName: __ZN9__gnu_cxx5__ops14_Val_comp_iterIZN7atcoder8internal11sa_doublingERKSt6vectorIiSaIiEEEUliiE_EC1EONS0_15_Iter_comp_iterIS9_EE, symObjAddr: 0x136B8, symBinAddr: 0x1000147C4, symSize: 0x44 }
  - { offsetInCU: 0x440F7, offset: 0x440F7, size: 0x8, addend: 0x0, symName: __ZN9__gnu_cxx5__ops14_Val_comp_iterIZN7atcoder8internal11sa_doublingERKSt6vectorIiSaIiEEEUliiE_EclIiNS_17__normal_iteratorIPiS6_EEEEbRT_T0_, symObjAddr: 0x136FC, symBinAddr: 0x100014808, symSize: 0x50 }
  - { offsetInCU: 0x44125, offset: 0x44125, size: 0x8, addend: 0x0, symName: __ZSt4moveIRN9__gnu_cxx5__ops15_Iter_comp_iterIZN7atcoder8internal11sa_doublingERKSt6vectorIiSaIiEEEUliiE_EEEONSt16remove_referenceIT_E4typeEOSE_, symObjAddr: 0x136A4, symBinAddr: 0x1000147B0, symSize: 0x14 }
  - { offsetInCU: 0x4412D, offset: 0x4412D, size: 0x8, addend: 0x0, symName: __ZN9__gnu_cxx5__ops14_Val_comp_iterIZN7atcoder8internal11sa_doublingERKSt6vectorIiSaIiEEEUliiE_EC1EONS0_15_Iter_comp_iterIS9_EE, symObjAddr: 0x136B8, symBinAddr: 0x1000147C4, symSize: 0x44 }
  - { offsetInCU: 0x44157, offset: 0x44157, size: 0x8, addend: 0x0, symName: __ZSt10__pop_heapIN9__gnu_cxx17__normal_iteratorIPiSt6vectorIiSaIiEEEENS0_5__ops15_Iter_comp_iterIZN7atcoder8internal11sa_doublingERKS5_EUliiE_EEEvT_SF_SF_RT0_, symObjAddr: 0x135F4, symBinAddr: 0x100014700, symSize: 0xB0 }
  - { offsetInCU: 0x4415F, offset: 0x4415F, size: 0x8, addend: 0x0, symName: __ZSt4moveIRN9__gnu_cxx5__ops15_Iter_comp_iterIZN7atcoder8internal11sa_doublingERKSt6vectorIiSaIiEEEUliiE_EEEONSt16remove_referenceIT_E4typeEOSE_, symObjAddr: 0x136A4, symBinAddr: 0x1000147B0, symSize: 0x14 }
  - { offsetInCU: 0x441ED, offset: 0x441ED, size: 0x8, addend: 0x0, symName: __ZSt11__make_heapIN9__gnu_cxx17__normal_iteratorIPiSt6vectorIiSaIiEEEENS0_5__ops15_Iter_comp_iterIZN7atcoder8internal11sa_doublingERKS5_EUliiE_EEEvT_SF_RT0_, symObjAddr: 0x134FC, symBinAddr: 0x100014608, symSize: 0xF8 }
  - { offsetInCU: 0x441F5, offset: 0x441F5, size: 0x8, addend: 0x0, symName: __ZSt10__pop_heapIN9__gnu_cxx17__normal_iteratorIPiSt6vectorIiSaIiEEEENS0_5__ops15_Iter_comp_iterIZN7atcoder8internal11sa_doublingERKS5_EUliiE_EEEvT_SF_SF_RT0_, symObjAddr: 0x135F4, symBinAddr: 0x100014700, symSize: 0xB0 }
  - { offsetInCU: 0x442A4, offset: 0x442A4, size: 0x8, addend: 0x0, symName: __ZSt13__copy_move_aILb0EN9__gnu_cxx17__normal_iteratorIPKiSt6vectorIiSaIiEEEEPiET1_T0_SA_S9_, symObjAddr: 0x1349C, symBinAddr: 0x1000145A8, symSize: 0x60 }
  - { offsetInCU: 0x442AC, offset: 0x442AC, size: 0x8, addend: 0x0, symName: __ZSt11__make_heapIN9__gnu_cxx17__normal_iteratorIPiSt6vectorIiSaIiEEEENS0_5__ops15_Iter_comp_iterIZN7atcoder8internal11sa_doublingERKS5_EUliiE_EEEvT_SF_RT0_, symObjAddr: 0x134FC, symBinAddr: 0x100014608, symSize: 0xF8 }
  - { offsetInCU: 0x4430C, offset: 0x4430C, size: 0x8, addend: 0x0, symName: __ZSt12__miter_baseIN9__gnu_cxx17__normal_iteratorIPKiSt6vectorIiSaIiEEEEET_S8_, symObjAddr: 0x13488, symBinAddr: 0x100014594, symSize: 0x14 }
  - { offsetInCU: 0x44314, offset: 0x44314, size: 0x8, addend: 0x0, symName: __ZSt13__copy_move_aILb0EN9__gnu_cxx17__normal_iteratorIPKiSt6vectorIiSaIiEEEEPiET1_T0_SA_S9_, symObjAddr: 0x1349C, symBinAddr: 0x1000145A8, symSize: 0x60 }
  - { offsetInCU: 0x44343, offset: 0x44343, size: 0x8, addend: 0x0, symName: __ZN9__gnu_cxx5__ops14_Val_comp_iterIZN7atcoder8internal8sa_naiveERKSt6vectorIiSaIiEEEUliiE_EclIiNS_17__normal_iteratorIPiS6_EEEEbRT_T0_, symObjAddr: 0x13438, symBinAddr: 0x100014544, symSize: 0x50 }
  - { offsetInCU: 0x4434B, offset: 0x4434B, size: 0x8, addend: 0x0, symName: __ZSt12__miter_baseIN9__gnu_cxx17__normal_iteratorIPKiSt6vectorIiSaIiEEEEET_S8_, symObjAddr: 0x13488, symBinAddr: 0x100014594, symSize: 0x14 }
  - { offsetInCU: 0x443C5, offset: 0x443C5, size: 0x8, addend: 0x0, symName: __ZN9__gnu_cxx5__ops14_Val_comp_iterIZN7atcoder8internal8sa_naiveERKSt6vectorIiSaIiEEEUliiE_EC1EONS0_15_Iter_comp_iterIS9_EE, symObjAddr: 0x13408, symBinAddr: 0x100014514, symSize: 0x30 }
  - { offsetInCU: 0x443CD, offset: 0x443CD, size: 0x8, addend: 0x0, symName: __ZN9__gnu_cxx5__ops14_Val_comp_iterIZN7atcoder8internal8sa_naiveERKSt6vectorIiSaIiEEEUliiE_EclIiNS_17__normal_iteratorIPiS6_EEEEbRT_T0_, symObjAddr: 0x13438, symBinAddr: 0x100014544, symSize: 0x50 }
  - { offsetInCU: 0x443FB, offset: 0x443FB, size: 0x8, addend: 0x0, symName: __ZSt4moveIRN9__gnu_cxx5__ops15_Iter_comp_iterIZN7atcoder8internal8sa_naiveERKSt6vectorIiSaIiEEEUliiE_EEEONSt16remove_referenceIT_E4typeEOSE_, symObjAddr: 0x133F4, symBinAddr: 0x100014500, symSize: 0x14 }
  - { offsetInCU: 0x44403, offset: 0x44403, size: 0x8, addend: 0x0, symName: __ZN9__gnu_cxx5__ops14_Val_comp_iterIZN7atcoder8internal8sa_naiveERKSt6vectorIiSaIiEEEUliiE_EC1EONS0_15_Iter_comp_iterIS9_EE, symObjAddr: 0x13408, symBinAddr: 0x100014514, symSize: 0x30 }
  - { offsetInCU: 0x4442D, offset: 0x4442D, size: 0x8, addend: 0x0, symName: __ZSt22__copy_move_backward_aILb1EN9__gnu_cxx17__normal_iteratorIPiSt6vectorIiSaIiEEEES6_ET1_T0_S8_S7_, symObjAddr: 0x13394, symBinAddr: 0x1000144A0, symSize: 0x60 }
  - { offsetInCU: 0x44435, offset: 0x44435, size: 0x8, addend: 0x0, symName: __ZSt4moveIRN9__gnu_cxx5__ops15_Iter_comp_iterIZN7atcoder8internal8sa_naiveERKSt6vectorIiSaIiEEEUliiE_EEEONSt16remove_referenceIT_E4typeEOSE_, symObjAddr: 0x133F4, symBinAddr: 0x100014500, symSize: 0x14 }
  - { offsetInCU: 0x44495, offset: 0x44495, size: 0x8, addend: 0x0, symName: __ZSt9iter_swapIN9__gnu_cxx17__normal_iteratorIPiSt6vectorIiSaIiEEEES6_EvT_T0_, symObjAddr: 0x13350, symBinAddr: 0x10001445C, symSize: 0x44 }
  - { offsetInCU: 0x4449D, offset: 0x4449D, size: 0x8, addend: 0x0, symName: __ZSt22__copy_move_backward_aILb1EN9__gnu_cxx17__normal_iteratorIPiSt6vectorIiSaIiEEEES6_ET1_T0_S8_S7_, symObjAddr: 0x13394, symBinAddr: 0x1000144A0, symSize: 0x60 }
  - { offsetInCU: 0x444E4, offset: 0x444E4, size: 0x8, addend: 0x0, symName: __ZN9__gnu_cxx17__normal_iteratorIPiSt6vectorIiSaIiEEEmmEv, symObjAddr: 0x13328, symBinAddr: 0x100014434, symSize: 0x28 }
  - { offsetInCU: 0x444EC, offset: 0x444EC, size: 0x8, addend: 0x0, symName: __ZSt9iter_swapIN9__gnu_cxx17__normal_iteratorIPiSt6vectorIiSaIiEEEES6_EvT_T0_, symObjAddr: 0x13350, symBinAddr: 0x10001445C, symSize: 0x44 }
  - { offsetInCU: 0x4450B, offset: 0x4450B, size: 0x8, addend: 0x0, symName: __ZSt10__pop_heapIN9__gnu_cxx17__normal_iteratorIPiSt6vectorIiSaIiEEEENS0_5__ops15_Iter_comp_iterIZN7atcoder8internal8sa_naiveERKS5_EUliiE_EEEvT_SF_SF_RT0_, symObjAddr: 0x13294, symBinAddr: 0x1000143A0, symSize: 0x94 }
  - { offsetInCU: 0x44513, offset: 0x44513, size: 0x8, addend: 0x0, symName: __ZN9__gnu_cxx17__normal_iteratorIPiSt6vectorIiSaIiEEEmmEv, symObjAddr: 0x13328, symBinAddr: 0x100014434, symSize: 0x28 }
  - { offsetInCU: 0x445A1, offset: 0x445A1, size: 0x8, addend: 0x0, symName: __ZSt11__make_heapIN9__gnu_cxx17__normal_iteratorIPiSt6vectorIiSaIiEEEENS0_5__ops15_Iter_comp_iterIZN7atcoder8internal8sa_naiveERKS5_EUliiE_EEEvT_SF_RT0_, symObjAddr: 0x131B8, symBinAddr: 0x1000142C4, symSize: 0xDC }
  - { offsetInCU: 0x445A9, offset: 0x445A9, size: 0x8, addend: 0x0, symName: __ZSt10__pop_heapIN9__gnu_cxx17__normal_iteratorIPiSt6vectorIiSaIiEEEENS0_5__ops15_Iter_comp_iterIZN7atcoder8internal8sa_naiveERKS5_EUliiE_EEEvT_SF_SF_RT0_, symObjAddr: 0x13294, symBinAddr: 0x1000143A0, symSize: 0x94 }
  - { offsetInCU: 0x44658, offset: 0x44658, size: 0x8, addend: 0x0, symName: __ZSt19__relocate_object_aIiiSaIiEEvPT_PT0_RT1_, symObjAddr: 0x1313C, symBinAddr: 0x100014248, symSize: 0x7C }
  - { offsetInCU: 0x44660, offset: 0x44660, size: 0x8, addend: 0x0, symName: __ZSt11__make_heapIN9__gnu_cxx17__normal_iteratorIPiSt6vectorIiSaIiEEEENS0_5__ops15_Iter_comp_iterIZN7atcoder8internal8sa_naiveERKS5_EUliiE_EEEvT_SF_RT0_, symObjAddr: 0x131B8, symBinAddr: 0x1000142C4, symSize: 0xDC }
  - { offsetInCU: 0x44727, offset: 0x44727, size: 0x8, addend: 0x0, symName: __ZNK9__gnu_cxx17__normal_iteratorIPivEdeEv, symObjAddr: 0x13124, symBinAddr: 0x100014230, symSize: 0x18 }
  - { offsetInCU: 0x4472F, offset: 0x4472F, size: 0x8, addend: 0x0, symName: __ZSt19__relocate_object_aIiiSaIiEEvPT_PT0_RT1_, symObjAddr: 0x1313C, symBinAddr: 0x100014248, symSize: 0x7C }
  - { offsetInCU: 0x44752, offset: 0x44752, size: 0x8, addend: 0x0, symName: __ZN9__gnu_cxx17__normal_iteratorIPivEppEv, symObjAddr: 0x130FC, symBinAddr: 0x100014208, symSize: 0x28 }
  - { offsetInCU: 0x4475A, offset: 0x4475A, size: 0x8, addend: 0x0, symName: __ZNK9__gnu_cxx17__normal_iteratorIPivEdeEv, symObjAddr: 0x13124, symBinAddr: 0x100014230, symSize: 0x18 }
  - { offsetInCU: 0x44790, offset: 0x44790, size: 0x8, addend: 0x0, symName: __ZSt10_ConstructIiJEEvPT_DpOT0_, symObjAddr: 0x130B4, symBinAddr: 0x1000141C0, symSize: 0x48 }
  - { offsetInCU: 0x44798, offset: 0x44798, size: 0x8, addend: 0x0, symName: __ZN9__gnu_cxx17__normal_iteratorIPivEppEv, symObjAddr: 0x130FC, symBinAddr: 0x100014208, symSize: 0x28 }
  - { offsetInCU: 0x447CC, offset: 0x447CC, size: 0x8, addend: 0x0, symName: __ZSt6fill_nIPimiET_S1_T0_RKT1_, symObjAddr: 0x1306C, symBinAddr: 0x100014178, symSize: 0x48 }
  - { offsetInCU: 0x447D4, offset: 0x447D4, size: 0x8, addend: 0x0, symName: __ZSt10_ConstructIiJEEvPT_DpOT0_, symObjAddr: 0x130B4, symBinAddr: 0x1000141C0, symSize: 0x48 }
  - { offsetInCU: 0x44854, offset: 0x44854, size: 0x8, addend: 0x0, symName: __ZSt6fill_nIPxmxET_S1_T0_RKT1_, symObjAddr: 0x13024, symBinAddr: 0x100014130, symSize: 0x48 }
  - { offsetInCU: 0x4485C, offset: 0x4485C, size: 0x8, addend: 0x0, symName: __ZSt6fill_nIPimiET_S1_T0_RKT1_, symObjAddr: 0x1306C, symBinAddr: 0x100014178, symSize: 0x48 }
  - { offsetInCU: 0x448DC, offset: 0x448DC, size: 0x8, addend: 0x0, symName: __ZSt10_ConstructIxJEEvPT_DpOT0_, symObjAddr: 0x12FDC, symBinAddr: 0x1000140E8, symSize: 0x48 }
  - { offsetInCU: 0x448E4, offset: 0x448E4, size: 0x8, addend: 0x0, symName: __ZSt6fill_nIPxmxET_S1_T0_RKT1_, symObjAddr: 0x13024, symBinAddr: 0x100014130, symSize: 0x48 }
  - { offsetInCU: 0x44940, offset: 0x44940, size: 0x8, addend: 0x0, symName: __ZN7atcoder13static_modintILi469762049ELPv0EEmIERKS2_, symObjAddr: 0x12F5C, symBinAddr: 0x100014068, symSize: 0x80 }
  - { offsetInCU: 0x44948, offset: 0x44948, size: 0x8, addend: 0x0, symName: __ZSt10_ConstructIxJEEvPT_DpOT0_, symObjAddr: 0x12FDC, symBinAddr: 0x1000140E8, symSize: 0x48 }
  - { offsetInCU: 0x4497B, offset: 0x4497B, size: 0x8, addend: 0x0, symName: __ZNSt5arrayIN7atcoder13static_modintILi469762049ELPv0EEELm24EEixEm, symObjAddr: 0x12F38, symBinAddr: 0x100014044, symSize: 0x24 }
  - { offsetInCU: 0x44983, offset: 0x44983, size: 0x8, addend: 0x0, symName: __ZN7atcoder13static_modintILi469762049ELPv0EEmIERKS2_, symObjAddr: 0x12F5C, symBinAddr: 0x100014068, symSize: 0x80 }
  - { offsetInCU: 0x449B6, offset: 0x449B6, size: 0x8, addend: 0x0, symName: __ZNSt5arrayIN7atcoder13static_modintILi469762049ELPv0EEELm25EEixEm, symObjAddr: 0x12F14, symBinAddr: 0x100014020, symSize: 0x24 }
  - { offsetInCU: 0x449BE, offset: 0x449BE, size: 0x8, addend: 0x0, symName: __ZNSt5arrayIN7atcoder13static_modintILi469762049ELPv0EEELm24EEixEm, symObjAddr: 0x12F38, symBinAddr: 0x100014044, symSize: 0x24 }
  - { offsetInCU: 0x449F1, offset: 0x449F1, size: 0x8, addend: 0x0, symName: __ZNSt5arrayIN7atcoder13static_modintILi469762049ELPv0EEELm27EEixEm, symObjAddr: 0x12EF0, symBinAddr: 0x100013FFC, symSize: 0x24 }
  - { offsetInCU: 0x449F9, offset: 0x449F9, size: 0x8, addend: 0x0, symName: __ZNSt5arrayIN7atcoder13static_modintILi469762049ELPv0EEELm25EEixEm, symObjAddr: 0x12F14, symBinAddr: 0x100014020, symSize: 0x24 }
  - { offsetInCU: 0x44A75, offset: 0x44A75, size: 0x8, addend: 0x0, symName: __ZN7atcoder13static_modintILi469762049ELPv0EEC1Ev, symObjAddr: 0x12ED4, symBinAddr: 0x100013FE0, symSize: 0x1C }
  - { offsetInCU: 0x44A7D, offset: 0x44A7D, size: 0x8, addend: 0x0, symName: __ZNSt5arrayIN7atcoder13static_modintILi469762049ELPv0EEELm27EEixEm, symObjAddr: 0x12EF0, symBinAddr: 0x100013FFC, symSize: 0x24 }
  - { offsetInCU: 0x44A69, offset: 0x44A69, size: 0x8, addend: 0x0, symName: __ZNSt6vectorIN7atcoder13static_modintILi469762049ELPv0EEESaIS3_EE11_S_relocateEPS3_S6_S6_RS4_, symObjAddr: 0x12EA0, symBinAddr: 0x100013FAC, symSize: 0x34 }
  - { offsetInCU: 0x44A71, offset: 0x44A71, size: 0x8, addend: 0x0, symName: __ZN7atcoder13static_modintILi469762049ELPv0EEC1Ev, symObjAddr: 0x12ED4, symBinAddr: 0x100013FE0, symSize: 0x1C }
  - { offsetInCU: 0x44ACA, offset: 0x44ACA, size: 0x8, addend: 0x0, symName: __ZNKSt6vectorIN7atcoder13static_modintILi469762049ELPv0EEESaIS3_EE8max_sizeEv, symObjAddr: 0x12E80, symBinAddr: 0x100013F8C, symSize: 0x20 }
  - { offsetInCU: 0x44AD2, offset: 0x44AD2, size: 0x8, addend: 0x0, symName: __ZNSt6vectorIN7atcoder13static_modintILi469762049ELPv0EEESaIS3_EE11_S_relocateEPS3_S6_S6_RS4_, symObjAddr: 0x12EA0, symBinAddr: 0x100013FAC, symSize: 0x34 }
  - { offsetInCU: 0x44AF1, offset: 0x44AF1, size: 0x8, addend: 0x0, symName: __ZNSt20__uninitialized_copyILb0EE13__uninit_copyIN9__gnu_cxx17__normal_iteratorIPKN7atcoder13static_modintILi469762049ELPv0EEESt6vectorIS7_SaIS7_EEEEPS7_EET0_T_SG_SF_, symObjAddr: 0x12E54, symBinAddr: 0x100013F60, symSize: 0x2C }
  - { offsetInCU: 0x44AF9, offset: 0x44AF9, size: 0x8, addend: 0x0, symName: __ZNKSt6vectorIN7atcoder13static_modintILi469762049ELPv0EEESaIS3_EE8max_sizeEv, symObjAddr: 0x12E80, symBinAddr: 0x100013F8C, symSize: 0x20 }
  - { offsetInCU: 0x44B4C, offset: 0x44B4C, size: 0x8, addend: 0x0, symName: __ZSt10_ConstructIN7atcoder13static_modintILi469762049ELPv0EEEJRKS3_EEvPT_DpOT0_, symObjAddr: 0x12DE4, symBinAddr: 0x100013EF0, symSize: 0x70 }
  - { offsetInCU: 0x44B54, offset: 0x44B54, size: 0x8, addend: 0x0, symName: __ZNSt20__uninitialized_copyILb0EE13__uninit_copyIN9__gnu_cxx17__normal_iteratorIPKN7atcoder13static_modintILi469762049ELPv0EEESt6vectorIS7_SaIS7_EEEEPS7_EET0_T_SG_SF_, symObjAddr: 0x12E54, symBinAddr: 0x100013F60, symSize: 0x2C }
  - { offsetInCU: 0x44B9C, offset: 0x44B9C, size: 0x8, addend: 0x0, symName: __ZNK9__gnu_cxx17__normal_iteratorIPKN7atcoder13static_modintILi469762049ELPv0EEESt6vectorIS4_SaIS4_EEEdeEv, symObjAddr: 0x12DCC, symBinAddr: 0x100013ED8, symSize: 0x18 }
  - { offsetInCU: 0x44BA4, offset: 0x44BA4, size: 0x8, addend: 0x0, symName: __ZSt10_ConstructIN7atcoder13static_modintILi469762049ELPv0EEEJRKS3_EEvPT_DpOT0_, symObjAddr: 0x12DE4, symBinAddr: 0x100013EF0, symSize: 0x70 }
  - { offsetInCU: 0x44BC7, offset: 0x44BC7, size: 0x8, addend: 0x0, symName: __ZN9__gnu_cxx17__normal_iteratorIPKN7atcoder13static_modintILi469762049ELPv0EEESt6vectorIS4_SaIS4_EEEppEv, symObjAddr: 0x12DA4, symBinAddr: 0x100013EB0, symSize: 0x28 }
  - { offsetInCU: 0x44BCF, offset: 0x44BCF, size: 0x8, addend: 0x0, symName: __ZNK9__gnu_cxx17__normal_iteratorIPKN7atcoder13static_modintILi469762049ELPv0EEESt6vectorIS4_SaIS4_EEEdeEv, symObjAddr: 0x12DCC, symBinAddr: 0x100013ED8, symSize: 0x18 }
  - { offsetInCU: 0x44BEE, offset: 0x44BEE, size: 0x8, addend: 0x0, symName: __ZSt8_DestroyIN7atcoder13static_modintILi469762049ELPv0EEEEvPT_, symObjAddr: 0x12D84, symBinAddr: 0x100013E90, symSize: 0x20 }
  - { offsetInCU: 0x44BF6, offset: 0x44BF6, size: 0x8, addend: 0x0, symName: __ZN9__gnu_cxx17__normal_iteratorIPKN7atcoder13static_modintILi469762049ELPv0EEESt6vectorIS4_SaIS4_EEEppEv, symObjAddr: 0x12DA4, symBinAddr: 0x100013EB0, symSize: 0x28 }
  - { offsetInCU: 0x44C20, offset: 0x44C20, size: 0x8, addend: 0x0, symName: __ZSt11__addressofIN7atcoder13static_modintILi469762049ELPv0EEEEPT_RS4_, symObjAddr: 0x12D70, symBinAddr: 0x100013E7C, symSize: 0x14 }
  - { offsetInCU: 0x44C28, offset: 0x44C28, size: 0x8, addend: 0x0, symName: __ZSt8_DestroyIN7atcoder13static_modintILi469762049ELPv0EEEEvPT_, symObjAddr: 0x12D84, symBinAddr: 0x100013E90, symSize: 0x20 }
  - { offsetInCU: 0x44C52, offset: 0x44C52, size: 0x8, addend: 0x0, symName: __ZNSt27__uninitialized_default_n_1ILb0EE18__uninit_default_nIPN7atcoder13static_modintILi469762049ELPv0EEEmEET_S7_T0_, symObjAddr: 0x12CE8, symBinAddr: 0x100013DF4, symSize: 0x88 }
  - { offsetInCU: 0x44C5A, offset: 0x44C5A, size: 0x8, addend: 0x0, symName: __ZSt11__addressofIN7atcoder13static_modintILi469762049ELPv0EEEEPT_RS4_, symObjAddr: 0x12D70, symBinAddr: 0x100013E7C, symSize: 0x14 }
  - { offsetInCU: 0x44D09, offset: 0x44D09, size: 0x8, addend: 0x0, symName: __ZN7atcoder13static_modintILi167772161ELPv0EEmIERKS2_, symObjAddr: 0x12C68, symBinAddr: 0x100013D74, symSize: 0x80 }
  - { offsetInCU: 0x44D11, offset: 0x44D11, size: 0x8, addend: 0x0, symName: __ZNSt27__uninitialized_default_n_1ILb0EE18__uninit_default_nIPN7atcoder13static_modintILi469762049ELPv0EEEmEET_S7_T0_, symObjAddr: 0x12CE8, symBinAddr: 0x100013DF4, symSize: 0x88 }
  - { offsetInCU: 0x44D44, offset: 0x44D44, size: 0x8, addend: 0x0, symName: __ZNSt5arrayIN7atcoder13static_modintILi167772161ELPv0EEELm23EEixEm, symObjAddr: 0x12C44, symBinAddr: 0x100013D50, symSize: 0x24 }
  - { offsetInCU: 0x44D4C, offset: 0x44D4C, size: 0x8, addend: 0x0, symName: __ZN7atcoder13static_modintILi167772161ELPv0EEmIERKS2_, symObjAddr: 0x12C68, symBinAddr: 0x100013D74, symSize: 0x80 }
  - { offsetInCU: 0x44D7F, offset: 0x44D7F, size: 0x8, addend: 0x0, symName: __ZNSt5arrayIN7atcoder13static_modintILi167772161ELPv0EEELm24EEixEm, symObjAddr: 0x12C20, symBinAddr: 0x100013D2C, symSize: 0x24 }
  - { offsetInCU: 0x44D87, offset: 0x44D87, size: 0x8, addend: 0x0, symName: __ZNSt5arrayIN7atcoder13static_modintILi167772161ELPv0EEELm23EEixEm, symObjAddr: 0x12C44, symBinAddr: 0x100013D50, symSize: 0x24 }
  - { offsetInCU: 0x44DBA, offset: 0x44DBA, size: 0x8, addend: 0x0, symName: __ZNSt5arrayIN7atcoder13static_modintILi167772161ELPv0EEELm26EEixEm, symObjAddr: 0x12BFC, symBinAddr: 0x100013D08, symSize: 0x24 }
  - { offsetInCU: 0x44DC2, offset: 0x44DC2, size: 0x8, addend: 0x0, symName: __ZNSt5arrayIN7atcoder13static_modintILi167772161ELPv0EEELm24EEixEm, symObjAddr: 0x12C20, symBinAddr: 0x100013D2C, symSize: 0x24 }
  - { offsetInCU: 0x44E3E, offset: 0x44E3E, size: 0x8, addend: 0x0, symName: __ZN7atcoder13static_modintILi167772161ELPv0EEC1Ev, symObjAddr: 0x12BE0, symBinAddr: 0x100013CEC, symSize: 0x1C }
  - { offsetInCU: 0x44E46, offset: 0x44E46, size: 0x8, addend: 0x0, symName: __ZNSt5arrayIN7atcoder13static_modintILi167772161ELPv0EEELm26EEixEm, symObjAddr: 0x12BFC, symBinAddr: 0x100013D08, symSize: 0x24 }
  - { offsetInCU: 0x44E32, offset: 0x44E32, size: 0x8, addend: 0x0, symName: __ZNSt6vectorIN7atcoder13static_modintILi167772161ELPv0EEESaIS3_EE11_S_relocateEPS3_S6_S6_RS4_, symObjAddr: 0x12BAC, symBinAddr: 0x100013CB8, symSize: 0x34 }
  - { offsetInCU: 0x44E3A, offset: 0x44E3A, size: 0x8, addend: 0x0, symName: __ZN7atcoder13static_modintILi167772161ELPv0EEC1Ev, symObjAddr: 0x12BE0, symBinAddr: 0x100013CEC, symSize: 0x1C }
  - { offsetInCU: 0x44E93, offset: 0x44E93, size: 0x8, addend: 0x0, symName: __ZNKSt6vectorIN7atcoder13static_modintILi167772161ELPv0EEESaIS3_EE8max_sizeEv, symObjAddr: 0x12B8C, symBinAddr: 0x100013C98, symSize: 0x20 }
  - { offsetInCU: 0x44E9B, offset: 0x44E9B, size: 0x8, addend: 0x0, symName: __ZNSt6vectorIN7atcoder13static_modintILi167772161ELPv0EEESaIS3_EE11_S_relocateEPS3_S6_S6_RS4_, symObjAddr: 0x12BAC, symBinAddr: 0x100013CB8, symSize: 0x34 }
  - { offsetInCU: 0x44EBA, offset: 0x44EBA, size: 0x8, addend: 0x0, symName: __ZNSt20__uninitialized_copyILb0EE13__uninit_copyIN9__gnu_cxx17__normal_iteratorIPKN7atcoder13static_modintILi167772161ELPv0EEESt6vectorIS7_SaIS7_EEEEPS7_EET0_T_SG_SF_, symObjAddr: 0x12B60, symBinAddr: 0x100013C6C, symSize: 0x2C }
  - { offsetInCU: 0x44EC2, offset: 0x44EC2, size: 0x8, addend: 0x0, symName: __ZNKSt6vectorIN7atcoder13static_modintILi167772161ELPv0EEESaIS3_EE8max_sizeEv, symObjAddr: 0x12B8C, symBinAddr: 0x100013C98, symSize: 0x20 }
  - { offsetInCU: 0x44F15, offset: 0x44F15, size: 0x8, addend: 0x0, symName: __ZSt10_ConstructIN7atcoder13static_modintILi167772161ELPv0EEEJRKS3_EEvPT_DpOT0_, symObjAddr: 0x12AF0, symBinAddr: 0x100013BFC, symSize: 0x70 }
  - { offsetInCU: 0x44F1D, offset: 0x44F1D, size: 0x8, addend: 0x0, symName: __ZNSt20__uninitialized_copyILb0EE13__uninit_copyIN9__gnu_cxx17__normal_iteratorIPKN7atcoder13static_modintILi167772161ELPv0EEESt6vectorIS7_SaIS7_EEEEPS7_EET0_T_SG_SF_, symObjAddr: 0x12B60, symBinAddr: 0x100013C6C, symSize: 0x2C }
  - { offsetInCU: 0x44F65, offset: 0x44F65, size: 0x8, addend: 0x0, symName: __ZNK9__gnu_cxx17__normal_iteratorIPKN7atcoder13static_modintILi167772161ELPv0EEESt6vectorIS4_SaIS4_EEEdeEv, symObjAddr: 0x12AD8, symBinAddr: 0x100013BE4, symSize: 0x18 }
  - { offsetInCU: 0x44F6D, offset: 0x44F6D, size: 0x8, addend: 0x0, symName: __ZSt10_ConstructIN7atcoder13static_modintILi167772161ELPv0EEEJRKS3_EEvPT_DpOT0_, symObjAddr: 0x12AF0, symBinAddr: 0x100013BFC, symSize: 0x70 }
  - { offsetInCU: 0x44F90, offset: 0x44F90, size: 0x8, addend: 0x0, symName: __ZN9__gnu_cxx17__normal_iteratorIPKN7atcoder13static_modintILi167772161ELPv0EEESt6vectorIS4_SaIS4_EEEppEv, symObjAddr: 0x12AB0, symBinAddr: 0x100013BBC, symSize: 0x28 }
  - { offsetInCU: 0x44F98, offset: 0x44F98, size: 0x8, addend: 0x0, symName: __ZNK9__gnu_cxx17__normal_iteratorIPKN7atcoder13static_modintILi167772161ELPv0EEESt6vectorIS4_SaIS4_EEEdeEv, symObjAddr: 0x12AD8, symBinAddr: 0x100013BE4, symSize: 0x18 }
  - { offsetInCU: 0x44FB7, offset: 0x44FB7, size: 0x8, addend: 0x0, symName: __ZSt8_DestroyIN7atcoder13static_modintILi167772161ELPv0EEEEvPT_, symObjAddr: 0x12A90, symBinAddr: 0x100013B9C, symSize: 0x20 }
  - { offsetInCU: 0x44FBF, offset: 0x44FBF, size: 0x8, addend: 0x0, symName: __ZN9__gnu_cxx17__normal_iteratorIPKN7atcoder13static_modintILi167772161ELPv0EEESt6vectorIS4_SaIS4_EEEppEv, symObjAddr: 0x12AB0, symBinAddr: 0x100013BBC, symSize: 0x28 }
  - { offsetInCU: 0x44FE9, offset: 0x44FE9, size: 0x8, addend: 0x0, symName: __ZSt11__addressofIN7atcoder13static_modintILi167772161ELPv0EEEEPT_RS4_, symObjAddr: 0x12A7C, symBinAddr: 0x100013B88, symSize: 0x14 }
  - { offsetInCU: 0x44FF1, offset: 0x44FF1, size: 0x8, addend: 0x0, symName: __ZSt8_DestroyIN7atcoder13static_modintILi167772161ELPv0EEEEvPT_, symObjAddr: 0x12A90, symBinAddr: 0x100013B9C, symSize: 0x20 }
  - { offsetInCU: 0x4501B, offset: 0x4501B, size: 0x8, addend: 0x0, symName: __ZNSt27__uninitialized_default_n_1ILb0EE18__uninit_default_nIPN7atcoder13static_modintILi167772161ELPv0EEEmEET_S7_T0_, symObjAddr: 0x129F4, symBinAddr: 0x100013B00, symSize: 0x88 }
  - { offsetInCU: 0x45023, offset: 0x45023, size: 0x8, addend: 0x0, symName: __ZSt11__addressofIN7atcoder13static_modintILi167772161ELPv0EEEEPT_RS4_, symObjAddr: 0x12A7C, symBinAddr: 0x100013B88, symSize: 0x14 }
  - { offsetInCU: 0x450D2, offset: 0x450D2, size: 0x8, addend: 0x0, symName: __ZN7atcoder13static_modintILi754974721ELPv0EEmIERKS2_, symObjAddr: 0x12974, symBinAddr: 0x100013A80, symSize: 0x80 }
  - { offsetInCU: 0x450DA, offset: 0x450DA, size: 0x8, addend: 0x0, symName: __ZNSt27__uninitialized_default_n_1ILb0EE18__uninit_default_nIPN7atcoder13static_modintILi167772161ELPv0EEEmEET_S7_T0_, symObjAddr: 0x129F4, symBinAddr: 0x100013B00, symSize: 0x88 }
  - { offsetInCU: 0x4510D, offset: 0x4510D, size: 0x8, addend: 0x0, symName: __ZNSt5arrayIN7atcoder13static_modintILi754974721ELPv0EEELm22EEixEm, symObjAddr: 0x12950, symBinAddr: 0x100013A5C, symSize: 0x24 }
  - { offsetInCU: 0x45115, offset: 0x45115, size: 0x8, addend: 0x0, symName: __ZN7atcoder13static_modintILi754974721ELPv0EEmIERKS2_, symObjAddr: 0x12974, symBinAddr: 0x100013A80, symSize: 0x80 }
  - { offsetInCU: 0x45148, offset: 0x45148, size: 0x8, addend: 0x0, symName: __ZNSt5arrayIN7atcoder13static_modintILi754974721ELPv0EEELm23EEixEm, symObjAddr: 0x1292C, symBinAddr: 0x100013A38, symSize: 0x24 }
  - { offsetInCU: 0x45150, offset: 0x45150, size: 0x8, addend: 0x0, symName: __ZNSt5arrayIN7atcoder13static_modintILi754974721ELPv0EEELm22EEixEm, symObjAddr: 0x12950, symBinAddr: 0x100013A5C, symSize: 0x24 }
  - { offsetInCU: 0x45183, offset: 0x45183, size: 0x8, addend: 0x0, symName: __ZNSt5arrayIN7atcoder13static_modintILi754974721ELPv0EEELm25EEixEm, symObjAddr: 0x12908, symBinAddr: 0x100013A14, symSize: 0x24 }
  - { offsetInCU: 0x4518B, offset: 0x4518B, size: 0x8, addend: 0x0, symName: __ZNSt5arrayIN7atcoder13static_modintILi754974721ELPv0EEELm23EEixEm, symObjAddr: 0x1292C, symBinAddr: 0x100013A38, symSize: 0x24 }
  - { offsetInCU: 0x45207, offset: 0x45207, size: 0x8, addend: 0x0, symName: __ZN7atcoder13static_modintILi754974721ELPv0EEC1Ev, symObjAddr: 0x128EC, symBinAddr: 0x1000139F8, symSize: 0x1C }
  - { offsetInCU: 0x4520F, offset: 0x4520F, size: 0x8, addend: 0x0, symName: __ZNSt5arrayIN7atcoder13static_modintILi754974721ELPv0EEELm25EEixEm, symObjAddr: 0x12908, symBinAddr: 0x100013A14, symSize: 0x24 }
  - { offsetInCU: 0x451FB, offset: 0x451FB, size: 0x8, addend: 0x0, symName: __ZNSt6vectorIN7atcoder13static_modintILi754974721ELPv0EEESaIS3_EE11_S_relocateEPS3_S6_S6_RS4_, symObjAddr: 0x128B8, symBinAddr: 0x1000139C4, symSize: 0x34 }
  - { offsetInCU: 0x45203, offset: 0x45203, size: 0x8, addend: 0x0, symName: __ZN7atcoder13static_modintILi754974721ELPv0EEC1Ev, symObjAddr: 0x128EC, symBinAddr: 0x1000139F8, symSize: 0x1C }
  - { offsetInCU: 0x4525C, offset: 0x4525C, size: 0x8, addend: 0x0, symName: __ZNKSt6vectorIN7atcoder13static_modintILi754974721ELPv0EEESaIS3_EE8max_sizeEv, symObjAddr: 0x12898, symBinAddr: 0x1000139A4, symSize: 0x20 }
  - { offsetInCU: 0x45264, offset: 0x45264, size: 0x8, addend: 0x0, symName: __ZNSt6vectorIN7atcoder13static_modintILi754974721ELPv0EEESaIS3_EE11_S_relocateEPS3_S6_S6_RS4_, symObjAddr: 0x128B8, symBinAddr: 0x1000139C4, symSize: 0x34 }
  - { offsetInCU: 0x45283, offset: 0x45283, size: 0x8, addend: 0x0, symName: __ZNSt20__uninitialized_copyILb0EE13__uninit_copyIN9__gnu_cxx17__normal_iteratorIPKN7atcoder13static_modintILi754974721ELPv0EEESt6vectorIS7_SaIS7_EEEEPS7_EET0_T_SG_SF_, symObjAddr: 0x1286C, symBinAddr: 0x100013978, symSize: 0x2C }
  - { offsetInCU: 0x4528B, offset: 0x4528B, size: 0x8, addend: 0x0, symName: __ZNKSt6vectorIN7atcoder13static_modintILi754974721ELPv0EEESaIS3_EE8max_sizeEv, symObjAddr: 0x12898, symBinAddr: 0x1000139A4, symSize: 0x20 }
  - { offsetInCU: 0x452DE, offset: 0x452DE, size: 0x8, addend: 0x0, symName: __ZSt10_ConstructIN7atcoder13static_modintILi754974721ELPv0EEEJRKS3_EEvPT_DpOT0_, symObjAddr: 0x127FC, symBinAddr: 0x100013908, symSize: 0x70 }
  - { offsetInCU: 0x452E6, offset: 0x452E6, size: 0x8, addend: 0x0, symName: __ZNSt20__uninitialized_copyILb0EE13__uninit_copyIN9__gnu_cxx17__normal_iteratorIPKN7atcoder13static_modintILi754974721ELPv0EEESt6vectorIS7_SaIS7_EEEEPS7_EET0_T_SG_SF_, symObjAddr: 0x1286C, symBinAddr: 0x100013978, symSize: 0x2C }
  - { offsetInCU: 0x4532E, offset: 0x4532E, size: 0x8, addend: 0x0, symName: __ZNK9__gnu_cxx17__normal_iteratorIPKN7atcoder13static_modintILi754974721ELPv0EEESt6vectorIS4_SaIS4_EEEdeEv, symObjAddr: 0x127E4, symBinAddr: 0x1000138F0, symSize: 0x18 }
  - { offsetInCU: 0x45336, offset: 0x45336, size: 0x8, addend: 0x0, symName: __ZSt10_ConstructIN7atcoder13static_modintILi754974721ELPv0EEEJRKS3_EEvPT_DpOT0_, symObjAddr: 0x127FC, symBinAddr: 0x100013908, symSize: 0x70 }
  - { offsetInCU: 0x45359, offset: 0x45359, size: 0x8, addend: 0x0, symName: __ZN9__gnu_cxx17__normal_iteratorIPKN7atcoder13static_modintILi754974721ELPv0EEESt6vectorIS4_SaIS4_EEEppEv, symObjAddr: 0x127BC, symBinAddr: 0x1000138C8, symSize: 0x28 }
  - { offsetInCU: 0x45361, offset: 0x45361, size: 0x8, addend: 0x0, symName: __ZNK9__gnu_cxx17__normal_iteratorIPKN7atcoder13static_modintILi754974721ELPv0EEESt6vectorIS4_SaIS4_EEEdeEv, symObjAddr: 0x127E4, symBinAddr: 0x1000138F0, symSize: 0x18 }
  - { offsetInCU: 0x45380, offset: 0x45380, size: 0x8, addend: 0x0, symName: __ZSt8_DestroyIN7atcoder13static_modintILi754974721ELPv0EEEEvPT_, symObjAddr: 0x1279C, symBinAddr: 0x1000138A8, symSize: 0x20 }
  - { offsetInCU: 0x45388, offset: 0x45388, size: 0x8, addend: 0x0, symName: __ZN9__gnu_cxx17__normal_iteratorIPKN7atcoder13static_modintILi754974721ELPv0EEESt6vectorIS4_SaIS4_EEEppEv, symObjAddr: 0x127BC, symBinAddr: 0x1000138C8, symSize: 0x28 }
  - { offsetInCU: 0x453B2, offset: 0x453B2, size: 0x8, addend: 0x0, symName: __ZSt11__addressofIN7atcoder13static_modintILi754974721ELPv0EEEEPT_RS4_, symObjAddr: 0x12788, symBinAddr: 0x100013894, symSize: 0x14 }
  - { offsetInCU: 0x453BA, offset: 0x453BA, size: 0x8, addend: 0x0, symName: __ZSt8_DestroyIN7atcoder13static_modintILi754974721ELPv0EEEEvPT_, symObjAddr: 0x1279C, symBinAddr: 0x1000138A8, symSize: 0x20 }
  - { offsetInCU: 0x453E4, offset: 0x453E4, size: 0x8, addend: 0x0, symName: __ZNSt27__uninitialized_default_n_1ILb0EE18__uninit_default_nIPN7atcoder13static_modintILi754974721ELPv0EEEmEET_S7_T0_, symObjAddr: 0x12700, symBinAddr: 0x10001380C, symSize: 0x88 }
  - { offsetInCU: 0x453EC, offset: 0x453EC, size: 0x8, addend: 0x0, symName: __ZSt11__addressofIN7atcoder13static_modintILi754974721ELPv0EEEEPT_RS4_, symObjAddr: 0x12788, symBinAddr: 0x100013894, symSize: 0x14 }
  - { offsetInCU: 0x45497, offset: 0x45497, size: 0x8, addend: 0x0, symName: __ZSt10destroy_atIxEvPT_, symObjAddr: 0x126EC, symBinAddr: 0x1000137F8, symSize: 0x14 }
  - { offsetInCU: 0x4549F, offset: 0x4549F, size: 0x8, addend: 0x0, symName: __ZNSt27__uninitialized_default_n_1ILb0EE18__uninit_default_nIPN7atcoder13static_modintILi754974721ELPv0EEEmEET_S7_T0_, symObjAddr: 0x12700, symBinAddr: 0x10001380C, symSize: 0x88 }
  - { offsetInCU: 0x454CD, offset: 0x454CD, size: 0x8, addend: 0x0, symName: __ZNK9__gnu_cxx17__normal_iteratorIPSt4pairIN7atcoder13static_modintILi998244353ELPv0EEES5_ESt6vectorIS6_SaIS6_EEEdeEv, symObjAddr: 0x126D4, symBinAddr: 0x1000137E0, symSize: 0x18 }
  - { offsetInCU: 0x454D5, offset: 0x454D5, size: 0x8, addend: 0x0, symName: __ZSt10destroy_atIxEvPT_, symObjAddr: 0x126EC, symBinAddr: 0x1000137F8, symSize: 0x14 }
  - { offsetInCU: 0x454F8, offset: 0x454F8, size: 0x8, addend: 0x0, symName: __ZNK9__gnu_cxx17__normal_iteratorIPSt4pairIN7atcoder13static_modintILi998244353ELPv0EEES5_ESt6vectorIS6_SaIS6_EEEmiEl, symObjAddr: 0x12690, symBinAddr: 0x10001379C, symSize: 0x44 }
  - { offsetInCU: 0x45500, offset: 0x45500, size: 0x8, addend: 0x0, symName: __ZNK9__gnu_cxx17__normal_iteratorIPSt4pairIN7atcoder13static_modintILi998244353ELPv0EEES5_ESt6vectorIS6_SaIS6_EEEdeEv, symObjAddr: 0x126D4, symBinAddr: 0x1000137E0, symSize: 0x18 }
  - { offsetInCU: 0x45530, offset: 0x45530, size: 0x8, addend: 0x0, symName: __ZNSt6vectorISt4pairIN7atcoder13static_modintILi998244353ELPv0EEES4_ESaIS5_EE11_S_relocateEPS5_S8_S8_RS6_, symObjAddr: 0x1265C, symBinAddr: 0x100013768, symSize: 0x34 }
  - { offsetInCU: 0x45538, offset: 0x45538, size: 0x8, addend: 0x0, symName: __ZNK9__gnu_cxx17__normal_iteratorIPSt4pairIN7atcoder13static_modintILi998244353ELPv0EEES5_ESt6vectorIS6_SaIS6_EEEmiEl, symObjAddr: 0x12690, symBinAddr: 0x10001379C, symSize: 0x44 }
  - { offsetInCU: 0x45591, offset: 0x45591, size: 0x8, addend: 0x0, symName: __ZNSt12_Vector_baseISt4pairIN7atcoder13static_modintILi998244353ELPv0EEES4_ESaIS5_EE11_M_allocateEm, symObjAddr: 0x12594, symBinAddr: 0x1000136A0, symSize: 0xC8 }
  - { offsetInCU: 0x45599, offset: 0x45599, size: 0x8, addend: 0x0, symName: __ZNSt6vectorISt4pairIN7atcoder13static_modintILi998244353ELPv0EEES4_ESaIS5_EE11_S_relocateEPS5_S8_S8_RS6_, symObjAddr: 0x1265C, symBinAddr: 0x100013768, symSize: 0x34 }
  - { offsetInCU: 0x45627, offset: 0x45627, size: 0x8, addend: 0x0, symName: __ZNK9__gnu_cxx17__normal_iteratorIPSt4pairIN7atcoder13static_modintILi998244353ELPv0EEES5_ESt6vectorIS6_SaIS6_EEE4baseEv, symObjAddr: 0x12580, symBinAddr: 0x10001368C, symSize: 0x14 }
  - { offsetInCU: 0x4562F, offset: 0x4562F, size: 0x8, addend: 0x0, symName: __ZNSt12_Vector_baseISt4pairIN7atcoder13static_modintILi998244353ELPv0EEES4_ESaIS5_EE11_M_allocateEm, symObjAddr: 0x12594, symBinAddr: 0x1000136A0, symSize: 0xC8 }
  - { offsetInCU: 0x45652, offset: 0x45652, size: 0x8, addend: 0x0, symName: __ZNKSt6vectorISt4pairIN7atcoder13static_modintILi998244353ELPv0EEES4_ESaIS5_EE8max_sizeEv, symObjAddr: 0x12560, symBinAddr: 0x10001366C, symSize: 0x20 }
  - { offsetInCU: 0x4565A, offset: 0x4565A, size: 0x8, addend: 0x0, symName: __ZNK9__gnu_cxx17__normal_iteratorIPSt4pairIN7atcoder13static_modintILi998244353ELPv0EEES5_ESt6vectorIS6_SaIS6_EEE4baseEv, symObjAddr: 0x12580, symBinAddr: 0x10001368C, symSize: 0x14 }
  - { offsetInCU: 0x4571B, offset: 0x4571B, size: 0x8, addend: 0x0, symName: __ZN9__gnu_cxx17__normal_iteratorIPSt4pairIN7atcoder13static_modintILi998244353ELPv0EEES5_ESt6vectorIS6_SaIS6_EEEC1ERKS7_, symObjAddr: 0x12538, symBinAddr: 0x100013644, symSize: 0x28 }
  - { offsetInCU: 0x45723, offset: 0x45723, size: 0x8, addend: 0x0, symName: __ZNKSt6vectorISt4pairIN7atcoder13static_modintILi998244353ELPv0EEES4_ESaIS5_EE8max_sizeEv, symObjAddr: 0x12560, symBinAddr: 0x10001366C, symSize: 0x20 }
  - { offsetInCU: 0x456D1, offset: 0x456D1, size: 0x8, addend: 0x0, symName: __ZSt12construct_atISt4pairIN7atcoder13static_modintILi998244353ELPv0EEES4_EJS5_EEDTgsnwcvS3_Li0E_T_pispcl7declvalIT0_EEEEPS6_DpOS7_, symObjAddr: 0x124F0, symBinAddr: 0x1000135FC, symSize: 0x48 }
  - { offsetInCU: 0x456D9, offset: 0x456D9, size: 0x8, addend: 0x0, symName: __ZN9__gnu_cxx17__normal_iteratorIPSt4pairIN7atcoder13static_modintILi998244353ELPv0EEES5_ESt6vectorIS6_SaIS6_EEEC1ERKS7_, symObjAddr: 0x12538, symBinAddr: 0x100013644, symSize: 0x28 }
  - { offsetInCU: 0x45721, offset: 0x45721, size: 0x8, addend: 0x0, symName: __ZNSt5dequeISt4pairIN7atcoder13static_modintILi998244353ELPv0EEES4_ESaIS5_EE15_M_pop_back_auxEv, symObjAddr: 0x12464, symBinAddr: 0x100013570, symSize: 0x8C }
  - { offsetInCU: 0x45729, offset: 0x45729, size: 0x8, addend: 0x0, symName: __ZSt12construct_atISt4pairIN7atcoder13static_modintILi998244353ELPv0EEES4_EJS5_EEDTgsnwcvS3_Li0E_T_pispcl7declvalIT0_EEEEPS6_DpOS7_, symObjAddr: 0x124F0, symBinAddr: 0x1000135FC, symSize: 0x48 }
  - { offsetInCU: 0x457A2, offset: 0x457A2, size: 0x8, addend: 0x0, symName: __ZNSt12_Destroy_auxILb1EE9__destroyIPSt4pairIN7atcoder13static_modintILi998244353ELPv0EEES6_EEEvT_S9_, symObjAddr: 0x1244C, symBinAddr: 0x100013558, symSize: 0x18 }
  - { offsetInCU: 0x457AA, offset: 0x457AA, size: 0x8, addend: 0x0, symName: __ZNSt5dequeISt4pairIN7atcoder13static_modintILi998244353ELPv0EEES4_ESaIS5_EE15_M_pop_back_auxEv, symObjAddr: 0x12464, symBinAddr: 0x100013570, symSize: 0x8C }
  - { offsetInCU: 0x457D6, offset: 0x457D6, size: 0x8, addend: 0x0, symName: __ZNSt12_Destroy_auxILb0EE9__destroyIPSt4pairIN7atcoder13static_modintILi998244353ELPv0EEES6_EEEvT_S9_, symObjAddr: 0x12400, symBinAddr: 0x10001350C, symSize: 0x4C }
  - { offsetInCU: 0x457DE, offset: 0x457DE, size: 0x8, addend: 0x0, symName: __ZNSt12_Destroy_auxILb1EE9__destroyIPSt4pairIN7atcoder13static_modintILi998244353ELPv0EEES6_EEEvT_S9_, symObjAddr: 0x1244C, symBinAddr: 0x100013558, symSize: 0x18 }
  - { offsetInCU: 0x4584D, offset: 0x4584D, size: 0x8, addend: 0x0, symName: __ZNSt5dequeISt4pairIN7atcoder13static_modintILi998244353ELPv0EEES4_ESaIS5_EE16_M_push_back_auxIJRKS5_EEEvDpOT_, symObjAddr: 0x12314, symBinAddr: 0x100013420, symSize: 0xEC }
  - { offsetInCU: 0x45855, offset: 0x45855, size: 0x8, addend: 0x0, symName: __ZNSt12_Destroy_auxILb0EE9__destroyIPSt4pairIN7atcoder13static_modintILi998244353ELPv0EEES6_EEEvT_S9_, symObjAddr: 0x12400, symBinAddr: 0x10001350C, symSize: 0x4C }
  - { offsetInCU: 0x45963, offset: 0x45963, size: 0x8, addend: 0x0, symName: __ZNKSt11_Deque_baseISt4pairIN7atcoder13static_modintILi998244353ELPv0EEES4_ESaIS5_EE19_M_get_Tp_allocatorEv, symObjAddr: 0x12300, symBinAddr: 0x10001340C, symSize: 0x14 }
  - { offsetInCU: 0x4596B, offset: 0x4596B, size: 0x8, addend: 0x0, symName: __ZNSt5dequeISt4pairIN7atcoder13static_modintILi998244353ELPv0EEES4_ESaIS5_EE16_M_push_back_auxIJRKS5_EEEvDpOT_, symObjAddr: 0x12314, symBinAddr: 0x100013420, symSize: 0xEC }
  - { offsetInCU: 0x4598E, offset: 0x4598E, size: 0x8, addend: 0x0, symName: __ZNSt5dequeISt4pairIN7atcoder13static_modintILi998244353ELPv0EEES4_ESaIS5_EE16_M_push_back_auxIJS5_EEEvDpOT_, symObjAddr: 0x12214, symBinAddr: 0x100013320, symSize: 0xEC }
  - { offsetInCU: 0x45996, offset: 0x45996, size: 0x8, addend: 0x0, symName: __ZNKSt11_Deque_baseISt4pairIN7atcoder13static_modintILi998244353ELPv0EEES4_ESaIS5_EE19_M_get_Tp_allocatorEv, symObjAddr: 0x12300, symBinAddr: 0x10001340C, symSize: 0x14 }
  - { offsetInCU: 0x45A0A, offset: 0x45A0A, size: 0x8, addend: 0x0, symName: __ZNSt15_Deque_iteratorISt4pairIN7atcoder13static_modintILi998244353ELPv0EEES4_ERS5_PS5_E11_M_set_nodeEPS7_, symObjAddr: 0x121B8, symBinAddr: 0x1000132C4, symSize: 0x5C }
  - { offsetInCU: 0x45A12, offset: 0x45A12, size: 0x8, addend: 0x0, symName: __ZNSt5dequeISt4pairIN7atcoder13static_modintILi998244353ELPv0EEES4_ESaIS5_EE16_M_push_back_auxIJS5_EEEvDpOT_, symObjAddr: 0x12214, symBinAddr: 0x100013320, symSize: 0xEC }
  - { offsetInCU: 0x45A46, offset: 0x45A46, size: 0x8, addend: 0x0, symName: __ZNSt11_Deque_baseISt4pairIN7atcoder13static_modintILi998244353ELPv0EEES4_ESaIS5_EE15_M_create_nodesEPPS5_S9_, symObjAddr: 0x1212C, symBinAddr: 0x100013238, symSize: 0x8C }
  - { offsetInCU: 0x45A4E, offset: 0x45A4E, size: 0x8, addend: 0x0, symName: __ZNSt15_Deque_iteratorISt4pairIN7atcoder13static_modintILi998244353ELPv0EEES4_ERS5_PS5_E11_M_set_nodeEPS7_, symObjAddr: 0x121B8, symBinAddr: 0x1000132C4, symSize: 0x5C }
  - { offsetInCU: 0x45AA4, offset: 0x45AA4, size: 0x8, addend: 0x0, symName: __ZNSt11_Deque_baseISt4pairIN7atcoder13static_modintILi998244353ELPv0EEES4_ESaIS5_EE15_M_allocate_mapEm, symObjAddr: 0x1205C, symBinAddr: 0x100013168, symSize: 0xD0 }
  - { offsetInCU: 0x45AAC, offset: 0x45AAC, size: 0x8, addend: 0x0, symName: __ZNSt11_Deque_baseISt4pairIN7atcoder13static_modintILi998244353ELPv0EEES4_ESaIS5_EE15_M_create_nodesEPPS5_S9_, symObjAddr: 0x1212C, symBinAddr: 0x100013238, symSize: 0x8C }
  - { offsetInCU: 0x45C0B, offset: 0x45C0B, size: 0x8, addend: 0x0, symName: __ZNSt11_Deque_baseISt4pairIN7atcoder13static_modintILi998244353ELPv0EEES4_ESaIS5_EE16_Deque_impl_dataC2Ev, symObjAddr: 0x1201C, symBinAddr: 0x100013128, symSize: 0x40 }
  - { offsetInCU: 0x45C13, offset: 0x45C13, size: 0x8, addend: 0x0, symName: __ZNSt11_Deque_baseISt4pairIN7atcoder13static_modintILi998244353ELPv0EEES4_ESaIS5_EE15_M_allocate_mapEm, symObjAddr: 0x1205C, symBinAddr: 0x100013168, symSize: 0xD0 }
  - { offsetInCU: 0x45C07, offset: 0x45C07, size: 0x8, addend: 0x0, symName: __ZSt14__copy_move_a2ILb0EPiS0_ET1_T0_S2_S1_, symObjAddr: 0x11FC4, symBinAddr: 0x1000130D0, symSize: 0x58 }
  - { offsetInCU: 0x45C0F, offset: 0x45C0F, size: 0x8, addend: 0x0, symName: __ZNSt11_Deque_baseISt4pairIN7atcoder13static_modintILi998244353ELPv0EEES4_ESaIS5_EE16_Deque_impl_dataC2Ev, symObjAddr: 0x1201C, symBinAddr: 0x100013128, symSize: 0x40 }
  - { offsetInCU: 0x45C6F, offset: 0x45C6F, size: 0x8, addend: 0x0, symName: __ZSt9__fill_a1IPiiEN9__gnu_cxx11__enable_ifIXsrSt11__is_scalarIT0_E7__valueEvE6__typeET_S8_RKS4_, symObjAddr: 0x11F6C, symBinAddr: 0x100013078, symSize: 0x58 }
  - { offsetInCU: 0x45C77, offset: 0x45C77, size: 0x8, addend: 0x0, symName: __ZSt14__copy_move_a2ILb0EPiS0_ET1_T0_S2_S1_, symObjAddr: 0x11FC4, symBinAddr: 0x1000130D0, symSize: 0x58 }
  - { offsetInCU: 0x45CDE, offset: 0x45CDE, size: 0x8, addend: 0x0, symName: __ZSt18uninitialized_copyIPKiPiET0_T_S4_S3_, symObjAddr: 0x11F30, symBinAddr: 0x10001303C, symSize: 0x3C }
  - { offsetInCU: 0x45CE6, offset: 0x45CE6, size: 0x8, addend: 0x0, symName: __ZSt9__fill_a1IPiiEN9__gnu_cxx11__enable_ifIXsrSt11__is_scalarIT0_E7__valueEvE6__typeET_S8_RKS4_, symObjAddr: 0x11F6C, symBinAddr: 0x100013078, symSize: 0x58 }
  - { offsetInCU: 0x45D59, offset: 0x45D59, size: 0x8, addend: 0x0, symName: __ZSt16__do_uninit_copyIPKiPiET0_T_S4_S3_, symObjAddr: 0x11ECC, symBinAddr: 0x100012FD8, symSize: 0x64 }
  - { offsetInCU: 0x45D61, offset: 0x45D61, size: 0x8, addend: 0x0, symName: __ZSt18uninitialized_copyIPKiPiET0_T_S4_S3_, symObjAddr: 0x11F30, symBinAddr: 0x10001303C, symSize: 0x3C }
  - { offsetInCU: 0x45DC4, offset: 0x45DC4, size: 0x8, addend: 0x0, symName: __ZSt25__unguarded_linear_insertIN9__gnu_cxx17__normal_iteratorIPiSt6vectorIiSaIiEEEENS0_5__ops14_Val_comp_iterIZN7atcoder8internal11sa_doublingERKS5_EUliiE_EEEvT_T0_, symObjAddr: 0x11E18, symBinAddr: 0x100012F24, symSize: 0xB4 }
  - { offsetInCU: 0x45DCC, offset: 0x45DCC, size: 0x8, addend: 0x0, symName: __ZSt16__do_uninit_copyIPKiPiET0_T_S4_S3_, symObjAddr: 0x11ECC, symBinAddr: 0x100012FD8, symSize: 0x64 }
  - { offsetInCU: 0x45E33, offset: 0x45E33, size: 0x8, addend: 0x0, symName: __ZN9__gnu_cxx5__ops15__val_comp_iterIZN7atcoder8internal11sa_doublingERKSt6vectorIiSaIiEEEUliiE_EENS0_14_Val_comp_iterIT_EENS0_15_Iter_comp_iterISB_EE, symObjAddr: 0x11DE4, symBinAddr: 0x100012EF0, symSize: 0x34 }
  - { offsetInCU: 0x45E3B, offset: 0x45E3B, size: 0x8, addend: 0x0, symName: __ZSt25__unguarded_linear_insertIN9__gnu_cxx17__normal_iteratorIPiSt6vectorIiSaIiEEEENS0_5__ops14_Val_comp_iterIZN7atcoder8internal11sa_doublingERKS5_EUliiE_EEEvT_T0_, symObjAddr: 0x11E18, symBinAddr: 0x100012F24, symSize: 0xB4 }
  - { offsetInCU: 0x45E69, offset: 0x45E69, size: 0x8, addend: 0x0, symName: __ZN9__gnu_cxx5__ops15_Iter_comp_iterIZN7atcoder8internal11sa_doublingERKSt6vectorIiSaIiEEEUliiE_EclINS_17__normal_iteratorIPiS6_EESE_EEbT_T0_, symObjAddr: 0x11D90, symBinAddr: 0x100012E9C, symSize: 0x54 }
  - { offsetInCU: 0x45E71, offset: 0x45E71, size: 0x8, addend: 0x0, symName: __ZN9__gnu_cxx5__ops15__val_comp_iterIZN7atcoder8internal11sa_doublingERKSt6vectorIiSaIiEEEUliiE_EENS0_14_Val_comp_iterIT_EENS0_15_Iter_comp_iterISB_EE, symObjAddr: 0x11DE4, symBinAddr: 0x100012EF0, symSize: 0x34 }
  - { offsetInCU: 0x45EC2, offset: 0x45EC2, size: 0x8, addend: 0x0, symName: __ZSt21__unguarded_partitionIN9__gnu_cxx17__normal_iteratorIPiSt6vectorIiSaIiEEEENS0_5__ops15_Iter_comp_iterIZN7atcoder8internal11sa_doublingERKS5_EUliiE_EEET_SF_SF_SF_T0_, symObjAddr: 0x11CA8, symBinAddr: 0x100012DB4, symSize: 0xE8 }
  - { offsetInCU: 0x45ECA, offset: 0x45ECA, size: 0x8, addend: 0x0, symName: __ZN9__gnu_cxx5__ops15_Iter_comp_iterIZN7atcoder8internal11sa_doublingERKSt6vectorIiSaIiEEEUliiE_EclINS_17__normal_iteratorIPiS6_EESE_EEbT_T0_, symObjAddr: 0x11D90, symBinAddr: 0x100012E9C, symSize: 0x54 }
  - { offsetInCU: 0x45F31, offset: 0x45F31, size: 0x8, addend: 0x0, symName: __ZSt22__move_median_to_firstIN9__gnu_cxx17__normal_iteratorIPiSt6vectorIiSaIiEEEENS0_5__ops15_Iter_comp_iterIZN7atcoder8internal11sa_doublingERKS5_EUliiE_EEEvT_SF_SF_SF_T0_, symObjAddr: 0x11B7C, symBinAddr: 0x100012C88, symSize: 0x12C }
  - { offsetInCU: 0x45F39, offset: 0x45F39, size: 0x8, addend: 0x0, symName: __ZSt21__unguarded_partitionIN9__gnu_cxx17__normal_iteratorIPiSt6vectorIiSaIiEEEENS0_5__ops15_Iter_comp_iterIZN7atcoder8internal11sa_doublingERKS5_EUliiE_EEET_SF_SF_SF_T0_, symObjAddr: 0x11CA8, symBinAddr: 0x100012DB4, symSize: 0xE8 }
  - { offsetInCU: 0x45FAC, offset: 0x45FAC, size: 0x8, addend: 0x0, symName: __ZSt11__sort_heapIN9__gnu_cxx17__normal_iteratorIPiSt6vectorIiSaIiEEEENS0_5__ops15_Iter_comp_iterIZN7atcoder8internal11sa_doublingERKS5_EUliiE_EEEvT_SF_RT0_, symObjAddr: 0x11B14, symBinAddr: 0x100012C20, symSize: 0x68 }
  - { offsetInCU: 0x45FB4, offset: 0x45FB4, size: 0x8, addend: 0x0, symName: __ZSt22__move_median_to_firstIN9__gnu_cxx17__normal_iteratorIPiSt6vectorIiSaIiEEEENS0_5__ops15_Iter_comp_iterIZN7atcoder8internal11sa_doublingERKS5_EUliiE_EEEvT_SF_SF_SF_T0_, symObjAddr: 0x11B7C, symBinAddr: 0x100012C88, symSize: 0x12C }
  - { offsetInCU: 0x4600A, offset: 0x4600A, size: 0x8, addend: 0x0, symName: __ZSt13__heap_selectIN9__gnu_cxx17__normal_iteratorIPiSt6vectorIiSaIiEEEENS0_5__ops15_Iter_comp_iterIZN7atcoder8internal11sa_doublingERKS5_EUliiE_EEEvT_SF_SF_T0_, symObjAddr: 0x11A54, symBinAddr: 0x100012B60, symSize: 0xC0 }
  - { offsetInCU: 0x46012, offset: 0x46012, size: 0x8, addend: 0x0, symName: __ZSt11__sort_heapIN9__gnu_cxx17__normal_iteratorIPiSt6vectorIiSaIiEEEENS0_5__ops15_Iter_comp_iterIZN7atcoder8internal11sa_doublingERKS5_EUliiE_EEEvT_SF_RT0_, symObjAddr: 0x11B14, symBinAddr: 0x100012C20, symSize: 0x68 }
  - { offsetInCU: 0x4609D, offset: 0x4609D, size: 0x8, addend: 0x0, symName: __ZSt4copyIN9__gnu_cxx17__normal_iteratorIPKiSt6vectorIiSaIiEEEEPiET0_T_SA_S9_, symObjAddr: 0x11A0C, symBinAddr: 0x100012B18, symSize: 0x48 }
  - { offsetInCU: 0x460A5, offset: 0x460A5, size: 0x8, addend: 0x0, symName: __ZSt13__heap_selectIN9__gnu_cxx17__normal_iteratorIPiSt6vectorIiSaIiEEEENS0_5__ops15_Iter_comp_iterIZN7atcoder8internal11sa_doublingERKS5_EUliiE_EEEvT_SF_SF_T0_, symObjAddr: 0x11A54, symBinAddr: 0x100012B60, symSize: 0xC0 }
  - { offsetInCU: 0x460FB, offset: 0x460FB, size: 0x8, addend: 0x0, symName: __ZSt25__unguarded_linear_insertIN9__gnu_cxx17__normal_iteratorIPiSt6vectorIiSaIiEEEENS0_5__ops14_Val_comp_iterIZN7atcoder8internal8sa_naiveERKS5_EUliiE_EEEvT_T0_, symObjAddr: 0x1195C, symBinAddr: 0x100012A68, symSize: 0xB0 }
  - { offsetInCU: 0x46103, offset: 0x46103, size: 0x8, addend: 0x0, symName: __ZSt4copyIN9__gnu_cxx17__normal_iteratorIPKiSt6vectorIiSaIiEEEEPiET0_T_SA_S9_, symObjAddr: 0x11A0C, symBinAddr: 0x100012B18, symSize: 0x48 }
  - { offsetInCU: 0x4616A, offset: 0x4616A, size: 0x8, addend: 0x0, symName: __ZN9__gnu_cxx5__ops15__val_comp_iterIZN7atcoder8internal8sa_naiveERKSt6vectorIiSaIiEEEUliiE_EENS0_14_Val_comp_iterIT_EENS0_15_Iter_comp_iterISB_EE, symObjAddr: 0x11930, symBinAddr: 0x100012A3C, symSize: 0x2C }
  - { offsetInCU: 0x46172, offset: 0x46172, size: 0x8, addend: 0x0, symName: __ZSt25__unguarded_linear_insertIN9__gnu_cxx17__normal_iteratorIPiSt6vectorIiSaIiEEEENS0_5__ops14_Val_comp_iterIZN7atcoder8internal8sa_naiveERKS5_EUliiE_EEEvT_T0_, symObjAddr: 0x1195C, symBinAddr: 0x100012A68, symSize: 0xB0 }
  - { offsetInCU: 0x4619C, offset: 0x4619C, size: 0x8, addend: 0x0, symName: __ZSt13move_backwardIN9__gnu_cxx17__normal_iteratorIPiSt6vectorIiSaIiEEEES6_ET0_T_S8_S7_, symObjAddr: 0x118E8, symBinAddr: 0x1000129F4, symSize: 0x48 }
  - { offsetInCU: 0x461A4, offset: 0x461A4, size: 0x8, addend: 0x0, symName: __ZN9__gnu_cxx5__ops15__val_comp_iterIZN7atcoder8internal8sa_naiveERKSt6vectorIiSaIiEEEUliiE_EENS0_14_Val_comp_iterIT_EENS0_15_Iter_comp_iterISB_EE, symObjAddr: 0x11930, symBinAddr: 0x100012A3C, symSize: 0x2C }
  - { offsetInCU: 0x461FE, offset: 0x461FE, size: 0x8, addend: 0x0, symName: __ZN9__gnu_cxx5__ops15_Iter_comp_iterIZN7atcoder8internal8sa_naiveERKSt6vectorIiSaIiEEEUliiE_EclINS_17__normal_iteratorIPiS6_EESE_EEbT_T0_, symObjAddr: 0x11894, symBinAddr: 0x1000129A0, symSize: 0x54 }
  - { offsetInCU: 0x46206, offset: 0x46206, size: 0x8, addend: 0x0, symName: __ZSt13move_backwardIN9__gnu_cxx17__normal_iteratorIPiSt6vectorIiSaIiEEEES6_ET0_T_S8_S7_, symObjAddr: 0x118E8, symBinAddr: 0x1000129F4, symSize: 0x48 }
  - { offsetInCU: 0x46257, offset: 0x46257, size: 0x8, addend: 0x0, symName: __ZSt21__unguarded_partitionIN9__gnu_cxx17__normal_iteratorIPiSt6vectorIiSaIiEEEENS0_5__ops15_Iter_comp_iterIZN7atcoder8internal8sa_naiveERKS5_EUliiE_EEET_SF_SF_SF_T0_, symObjAddr: 0x117AC, symBinAddr: 0x1000128B8, symSize: 0xE8 }
  - { offsetInCU: 0x4625F, offset: 0x4625F, size: 0x8, addend: 0x0, symName: __ZN9__gnu_cxx5__ops15_Iter_comp_iterIZN7atcoder8internal8sa_naiveERKSt6vectorIiSaIiEEEUliiE_EclINS_17__normal_iteratorIPiS6_EESE_EEbT_T0_, symObjAddr: 0x11894, symBinAddr: 0x1000129A0, symSize: 0x54 }
  - { offsetInCU: 0x462C6, offset: 0x462C6, size: 0x8, addend: 0x0, symName: __ZSt22__move_median_to_firstIN9__gnu_cxx17__normal_iteratorIPiSt6vectorIiSaIiEEEENS0_5__ops15_Iter_comp_iterIZN7atcoder8internal8sa_naiveERKS5_EUliiE_EEEvT_SF_SF_SF_T0_, symObjAddr: 0x11688, symBinAddr: 0x100012794, symSize: 0x124 }
  - { offsetInCU: 0x462CE, offset: 0x462CE, size: 0x8, addend: 0x0, symName: __ZSt21__unguarded_partitionIN9__gnu_cxx17__normal_iteratorIPiSt6vectorIiSaIiEEEENS0_5__ops15_Iter_comp_iterIZN7atcoder8internal8sa_naiveERKS5_EUliiE_EEET_SF_SF_SF_T0_, symObjAddr: 0x117AC, symBinAddr: 0x1000128B8, symSize: 0xE8 }
  - { offsetInCU: 0x46341, offset: 0x46341, size: 0x8, addend: 0x0, symName: __ZSt11__sort_heapIN9__gnu_cxx17__normal_iteratorIPiSt6vectorIiSaIiEEEENS0_5__ops15_Iter_comp_iterIZN7atcoder8internal8sa_naiveERKS5_EUliiE_EEEvT_SF_RT0_, symObjAddr: 0x11620, symBinAddr: 0x10001272C, symSize: 0x68 }
  - { offsetInCU: 0x46349, offset: 0x46349, size: 0x8, addend: 0x0, symName: __ZSt22__move_median_to_firstIN9__gnu_cxx17__normal_iteratorIPiSt6vectorIiSaIiEEEENS0_5__ops15_Iter_comp_iterIZN7atcoder8internal8sa_naiveERKS5_EUliiE_EEEvT_SF_SF_SF_T0_, symObjAddr: 0x11688, symBinAddr: 0x100012794, symSize: 0x124 }
  - { offsetInCU: 0x4639F, offset: 0x4639F, size: 0x8, addend: 0x0, symName: __ZSt13__heap_selectIN9__gnu_cxx17__normal_iteratorIPiSt6vectorIiSaIiEEEENS0_5__ops15_Iter_comp_iterIZN7atcoder8internal8sa_naiveERKS5_EUliiE_EEEvT_SF_SF_T0_, symObjAddr: 0x11558, symBinAddr: 0x100012664, symSize: 0xC8 }
  - { offsetInCU: 0x463A7, offset: 0x463A7, size: 0x8, addend: 0x0, symName: __ZSt11__sort_heapIN9__gnu_cxx17__normal_iteratorIPiSt6vectorIiSaIiEEEENS0_5__ops15_Iter_comp_iterIZN7atcoder8internal8sa_naiveERKS5_EUliiE_EEEvT_SF_RT0_, symObjAddr: 0x11620, symBinAddr: 0x10001272C, symSize: 0x68 }
  - { offsetInCU: 0x46438, offset: 0x46438, size: 0x8, addend: 0x0, symName: __ZN9__gnu_cxxssIPiSt6vectorIiSaIiEEEEDTclL_ZNSt8__detail11__synth3wayEEcl7declvalIRT_EEcl7declvalIS7_EEEERKNS_17__normal_iteratorIS6_T0_EESD_, symObjAddr: 0x11510, symBinAddr: 0x10001261C, symSize: 0x48 }
  - { offsetInCU: 0x46440, offset: 0x46440, size: 0x8, addend: 0x0, symName: __ZSt13__heap_selectIN9__gnu_cxx17__normal_iteratorIPiSt6vectorIiSaIiEEEENS0_5__ops15_Iter_comp_iterIZN7atcoder8internal8sa_naiveERKS5_EUliiE_EEEvT_SF_SF_T0_, symObjAddr: 0x11558, symBinAddr: 0x100012664, symSize: 0xC8 }
  - { offsetInCU: 0x46495, offset: 0x46495, size: 0x8, addend: 0x0, symName: __ZNKSt8__detail10_Synth3wayclIPiS2_EEDaRKT_RKT0_, symObjAddr: 0x114B4, symBinAddr: 0x1000125C0, symSize: 0x5C }
  - { offsetInCU: 0x4649D, offset: 0x4649D, size: 0x8, addend: 0x0, symName: __ZN9__gnu_cxxssIPiSt6vectorIiSaIiEEEEDTclL_ZNSt8__detail11__synth3wayEEcl7declvalIRT_EEcl7declvalIS7_EEEERKNS_17__normal_iteratorIS6_T0_EESD_, symObjAddr: 0x11510, symBinAddr: 0x10001261C, symSize: 0x48 }
  - { offsetInCU: 0x4653C, offset: 0x4653C, size: 0x8, addend: 0x0, symName: __ZNSt10_Head_baseILm1ERxLb0EEC2ES0_, symObjAddr: 0x11490, symBinAddr: 0x10001259C, symSize: 0x24 }
  - { offsetInCU: 0x46544, offset: 0x46544, size: 0x8, addend: 0x0, symName: __ZNKSt8__detail10_Synth3wayclIPiS2_EEDaRKT_RKT0_, symObjAddr: 0x114B4, symBinAddr: 0x1000125C0, symSize: 0x5C }
  - { offsetInCU: 0x4654B, offset: 0x4654B, size: 0x8, addend: 0x0, symName: __ZNK9__gnu_cxx17__normal_iteratorIPivE4baseEv, symObjAddr: 0x1147C, symBinAddr: 0x100012588, symSize: 0x14 }
  - { offsetInCU: 0x46553, offset: 0x46553, size: 0x8, addend: 0x0, symName: __ZNSt10_Head_baseILm1ERxLb0EEC2ES0_, symObjAddr: 0x11490, symBinAddr: 0x10001259C, symSize: 0x24 }
  - { offsetInCU: 0x46572, offset: 0x46572, size: 0x8, addend: 0x0, symName: __ZSt14__relocate_a_1IPiN9__gnu_cxx17__normal_iteratorIS0_vEESaIiEET0_T_S6_S5_RT1_, symObjAddr: 0x113F8, symBinAddr: 0x100012504, symSize: 0x84 }
  - { offsetInCU: 0x4657A, offset: 0x4657A, size: 0x8, addend: 0x0, symName: __ZNK9__gnu_cxx17__normal_iteratorIPivE4baseEv, symObjAddr: 0x1147C, symBinAddr: 0x100012588, symSize: 0x14 }
  - { offsetInCU: 0x465FF, offset: 0x465FF, size: 0x8, addend: 0x0, symName: __ZNSt15__new_allocatorIiE8allocateEmPKv, symObjAddr: 0x1137C, symBinAddr: 0x100012488, symSize: 0x7C }
  - { offsetInCU: 0x46607, offset: 0x46607, size: 0x8, addend: 0x0, symName: __ZSt14__relocate_a_1IPiN9__gnu_cxx17__normal_iteratorIS0_vEESaIiEET0_T_S6_S5_RT1_, symObjAddr: 0x113F8, symBinAddr: 0x100012504, symSize: 0x84 }
  - { offsetInCU: 0x46672, offset: 0x46672, size: 0x8, addend: 0x0, symName: __ZNSt27__uninitialized_default_n_1ILb1EE18__uninit_default_nIPimEET_S3_T0_, symObjAddr: 0x11318, symBinAddr: 0x100012424, symSize: 0x64 }
  - { offsetInCU: 0x4667A, offset: 0x4667A, size: 0x8, addend: 0x0, symName: __ZNSt15__new_allocatorIiE8allocateEmPKv, symObjAddr: 0x1137C, symBinAddr: 0x100012488, symSize: 0x7C }
  - { offsetInCU: 0x466EA, offset: 0x466EA, size: 0x8, addend: 0x0, symName: __ZNSt27__uninitialized_default_n_1ILb0EE18__uninit_default_nIPimEET_S3_T0_, symObjAddr: 0x112C0, symBinAddr: 0x1000123CC, symSize: 0x58 }
  - { offsetInCU: 0x466F2, offset: 0x466F2, size: 0x8, addend: 0x0, symName: __ZNSt27__uninitialized_default_n_1ILb1EE18__uninit_default_nIPimEET_S3_T0_, symObjAddr: 0x11318, symBinAddr: 0x100012424, symSize: 0x64 }
  - { offsetInCU: 0x46748, offset: 0x46748, size: 0x8, addend: 0x0, symName: __ZNSt22__uninitialized_fill_nILb1EE15__uninit_fill_nIPimiEET_S3_T0_RKT1_, symObjAddr: 0x11294, symBinAddr: 0x1000123A0, symSize: 0x2C }
  - { offsetInCU: 0x46750, offset: 0x46750, size: 0x8, addend: 0x0, symName: __ZNSt27__uninitialized_default_n_1ILb0EE18__uninit_default_nIPimEET_S3_T0_, symObjAddr: 0x112C0, symBinAddr: 0x1000123CC, symSize: 0x58 }
  - { offsetInCU: 0x467AF, offset: 0x467AF, size: 0x8, addend: 0x0, symName: __ZSt8_DestroyIiEvPT_, symObjAddr: 0x11274, symBinAddr: 0x100012380, symSize: 0x20 }
  - { offsetInCU: 0x467B7, offset: 0x467B7, size: 0x8, addend: 0x0, symName: __ZNSt22__uninitialized_fill_nILb1EE15__uninit_fill_nIPimiEET_S3_T0_RKT1_, symObjAddr: 0x11294, symBinAddr: 0x1000123A0, symSize: 0x2C }
  - { offsetInCU: 0x467E5, offset: 0x467E5, size: 0x8, addend: 0x0, symName: __ZNSt15__new_allocatorIiE10deallocateEPim, symObjAddr: 0x11244, symBinAddr: 0x100012350, symSize: 0x30 }
  - { offsetInCU: 0x467ED, offset: 0x467ED, size: 0x8, addend: 0x0, symName: __ZSt8_DestroyIiEvPT_, symObjAddr: 0x11274, symBinAddr: 0x100012380, symSize: 0x20 }
  - { offsetInCU: 0x4682C, offset: 0x4682C, size: 0x8, addend: 0x0, symName: __ZNSt27__uninitialized_default_n_1ILb1EE18__uninit_default_nIPxmEET_S3_T0_, symObjAddr: 0x111E0, symBinAddr: 0x1000122EC, symSize: 0x64 }
  - { offsetInCU: 0x46834, offset: 0x46834, size: 0x8, addend: 0x0, symName: __ZNSt15__new_allocatorIiE10deallocateEPim, symObjAddr: 0x11244, symBinAddr: 0x100012350, symSize: 0x30 }
  - { offsetInCU: 0x468A4, offset: 0x468A4, size: 0x8, addend: 0x0, symName: __ZNSt27__uninitialized_default_n_1ILb0EE18__uninit_default_nIPxmEET_S3_T0_, symObjAddr: 0x11188, symBinAddr: 0x100012294, symSize: 0x58 }
  - { offsetInCU: 0x468AC, offset: 0x468AC, size: 0x8, addend: 0x0, symName: __ZNSt27__uninitialized_default_n_1ILb1EE18__uninit_default_nIPxmEET_S3_T0_, symObjAddr: 0x111E0, symBinAddr: 0x1000122EC, symSize: 0x64 }
  - { offsetInCU: 0x4692A, offset: 0x4692A, size: 0x8, addend: 0x0, symName: __ZNK7atcoder13static_modintILi469762049ELPv0EE3powEx, symObjAddr: 0x110D8, symBinAddr: 0x1000121E4, symSize: 0xB0 }
  - { offsetInCU: 0x46932, offset: 0x46932, size: 0x8, addend: 0x0, symName: __ZNSt27__uninitialized_default_n_1ILb0EE18__uninit_default_nIPxmEET_S3_T0_, symObjAddr: 0x11188, symBinAddr: 0x100012294, symSize: 0x58 }
  - { offsetInCU: 0x469AB, offset: 0x469AB, size: 0x8, addend: 0x0, symName: __ZNKSt5arrayIN7atcoder13static_modintILi469762049ELPv0EEELm24EEixEm, symObjAddr: 0x110B4, symBinAddr: 0x1000121C0, symSize: 0x24 }
  - { offsetInCU: 0x469B3, offset: 0x469B3, size: 0x8, addend: 0x0, symName: __ZNK7atcoder13static_modintILi469762049ELPv0EE3powEx, symObjAddr: 0x110D8, symBinAddr: 0x1000121E4, symSize: 0xB0 }
  - { offsetInCU: 0x46A4F, offset: 0x46A4F, size: 0x8, addend: 0x0, symName: __ZN7atcoder13static_modintILi469762049ELPv0EEC1IyLS1_0EEET_, symObjAddr: 0x11074, symBinAddr: 0x100012180, symSize: 0x40 }
  - { offsetInCU: 0x46A57, offset: 0x46A57, size: 0x8, addend: 0x0, symName: __ZNKSt5arrayIN7atcoder13static_modintILi469762049ELPv0EEELm24EEixEm, symObjAddr: 0x110B4, symBinAddr: 0x1000121C0, symSize: 0x24 }
  - { offsetInCU: 0x46A4F, offset: 0x46A4F, size: 0x8, addend: 0x0, symName: __ZNKSt5arrayIN7atcoder13static_modintILi469762049ELPv0EEELm27EEixEm, symObjAddr: 0x11050, symBinAddr: 0x10001215C, symSize: 0x24 }
  - { offsetInCU: 0x46A57, offset: 0x46A57, size: 0x8, addend: 0x0, symName: __ZN7atcoder13static_modintILi469762049ELPv0EEC1IyLS1_0EEET_, symObjAddr: 0x11074, symBinAddr: 0x100012180, symSize: 0x40 }
  - { offsetInCU: 0x46A8A, offset: 0x46A8A, size: 0x8, addend: 0x0, symName: __ZNKSt5arrayIN7atcoder13static_modintILi469762049ELPv0EEELm25EEixEm, symObjAddr: 0x1102C, symBinAddr: 0x100012138, symSize: 0x24 }
  - { offsetInCU: 0x46A92, offset: 0x46A92, size: 0x8, addend: 0x0, symName: __ZNKSt5arrayIN7atcoder13static_modintILi469762049ELPv0EEELm27EEixEm, symObjAddr: 0x11050, symBinAddr: 0x10001215C, symSize: 0x24 }
  - { offsetInCU: 0x46AC1, offset: 0x46AC1, size: 0x8, addend: 0x0, symName: __ZN7atcodermiERKNS_13static_modintILi469762049ELPv0EEES4_, symObjAddr: 0x10FF8, symBinAddr: 0x100012104, symSize: 0x34 }
  - { offsetInCU: 0x46AC9, offset: 0x46AC9, size: 0x8, addend: 0x0, symName: __ZNKSt5arrayIN7atcoder13static_modintILi469762049ELPv0EEELm25EEixEm, symObjAddr: 0x1102C, symBinAddr: 0x100012138, symSize: 0x24 }
  - { offsetInCU: 0x46AFA, offset: 0x46AFA, size: 0x8, addend: 0x0, symName: __ZN7atcoderplERKNS_13static_modintILi469762049ELPv0EEES4_, symObjAddr: 0x10FC4, symBinAddr: 0x1000120D0, symSize: 0x34 }
  - { offsetInCU: 0x46B02, offset: 0x46B02, size: 0x8, addend: 0x0, symName: __ZN7atcodermiERKNS_13static_modintILi469762049ELPv0EEES4_, symObjAddr: 0x10FF8, symBinAddr: 0x100012104, symSize: 0x34 }
  - { offsetInCU: 0x46C0C, offset: 0x46C0C, size: 0x8, addend: 0x0, symName: __ZN7atcoder8internal8fft_infoINS_13static_modintILi469762049ELPv0EEELi3ELS3_0EEC1Ev, symObjAddr: 0x10BD4, symBinAddr: 0x100011CE0, symSize: 0x3F0 }
  - { offsetInCU: 0x46C14, offset: 0x46C14, size: 0x8, addend: 0x0, symName: __ZN7atcoderplERKNS_13static_modintILi469762049ELPv0EEES4_, symObjAddr: 0x10FC4, symBinAddr: 0x1000120D0, symSize: 0x34 }
  - { offsetInCU: 0x46D3E, offset: 0x46D3E, size: 0x8, addend: 0x0, symName: __ZNSt5arrayIN7atcoder13static_modintILi469762049ELPv0EEELm24EEC1Ev, symObjAddr: 0x10B88, symBinAddr: 0x100011C94, symSize: 0x4C }
  - { offsetInCU: 0x46D46, offset: 0x46D46, size: 0x8, addend: 0x0, symName: __ZN7atcoder8internal8fft_infoINS_13static_modintILi469762049ELPv0EEELi3ELS3_0EEC1Ev, symObjAddr: 0x10BD4, symBinAddr: 0x100011CE0, symSize: 0x3F0 }
  - { offsetInCU: 0x46D82, offset: 0x46D82, size: 0x8, addend: 0x0, symName: __ZNSt5arrayIN7atcoder13static_modintILi469762049ELPv0EEELm25EEC1Ev, symObjAddr: 0x10B3C, symBinAddr: 0x100011C48, symSize: 0x4C }
  - { offsetInCU: 0x46D8A, offset: 0x46D8A, size: 0x8, addend: 0x0, symName: __ZNSt5arrayIN7atcoder13static_modintILi469762049ELPv0EEELm24EEC1Ev, symObjAddr: 0x10B88, symBinAddr: 0x100011C94, symSize: 0x4C }
  - { offsetInCU: 0x46DC6, offset: 0x46DC6, size: 0x8, addend: 0x0, symName: __ZNSt5arrayIN7atcoder13static_modintILi469762049ELPv0EEELm27EEC1Ev, symObjAddr: 0x10AF0, symBinAddr: 0x100011BFC, symSize: 0x4C }
  - { offsetInCU: 0x46DCE, offset: 0x46DCE, size: 0x8, addend: 0x0, symName: __ZNSt5arrayIN7atcoder13static_modintILi469762049ELPv0EEELm25EEC1Ev, symObjAddr: 0x10B3C, symBinAddr: 0x100011C48, symSize: 0x4C }
  - { offsetInCU: 0x46DAD, offset: 0x46DAD, size: 0x8, addend: 0x0, symName: __ZNSt6vectorIN7atcoder13static_modintILi469762049ELPv0EEESaIS3_EE15_M_erase_at_endEPS3_, symObjAddr: 0x10A68, symBinAddr: 0x100011B74, symSize: 0x88 }
  - { offsetInCU: 0x46DB5, offset: 0x46DB5, size: 0x8, addend: 0x0, symName: __ZNSt5arrayIN7atcoder13static_modintILi469762049ELPv0EEELm27EEC1Ev, symObjAddr: 0x10AF0, symBinAddr: 0x100011BFC, symSize: 0x4C }
  - { offsetInCU: 0x46E43, offset: 0x46E43, size: 0x8, addend: 0x0, symName: __ZNSt6vectorIN7atcoder13static_modintILi469762049ELPv0EEESaIS3_EE17_M_default_appendEm, symObjAddr: 0x10868, symBinAddr: 0x100011974, symSize: 0x200 }
  - { offsetInCU: 0x46E4B, offset: 0x46E4B, size: 0x8, addend: 0x0, symName: __ZNSt6vectorIN7atcoder13static_modintILi469762049ELPv0EEESaIS3_EE15_M_erase_at_endEPS3_, symObjAddr: 0x10A68, symBinAddr: 0x100011B74, symSize: 0x88 }
  - { offsetInCU: 0x46EF3, offset: 0x46EF3, size: 0x8, addend: 0x0, symName: __ZNKSt6vectorIN7atcoder13static_modintILi469762049ELPv0EEESaIS3_EE12_M_check_lenEmPKc, symObjAddr: 0x10798, symBinAddr: 0x1000118A4, symSize: 0xD0 }
  - { offsetInCU: 0x46EFB, offset: 0x46EFB, size: 0x8, addend: 0x0, symName: __ZNSt6vectorIN7atcoder13static_modintILi469762049ELPv0EEESaIS3_EE17_M_default_appendEm, symObjAddr: 0x10868, symBinAddr: 0x100011974, symSize: 0x200 }
  - { offsetInCU: 0x46F4D, offset: 0x46F4D, size: 0x8, addend: 0x0, symName: __ZSt18uninitialized_copyIN9__gnu_cxx17__normal_iteratorIPKN7atcoder13static_modintILi469762049ELPv0EEESt6vectorIS5_SaIS5_EEEEPS5_ET0_T_SE_SD_, symObjAddr: 0x10764, symBinAddr: 0x100011870, symSize: 0x34 }
  - { offsetInCU: 0x46F55, offset: 0x46F55, size: 0x8, addend: 0x0, symName: __ZNKSt6vectorIN7atcoder13static_modintILi469762049ELPv0EEESaIS3_EE12_M_check_lenEmPKc, symObjAddr: 0x10798, symBinAddr: 0x1000118A4, symSize: 0xD0 }
  - { offsetInCU: 0x46FC8, offset: 0x46FC8, size: 0x8, addend: 0x0, symName: __ZSt16__do_uninit_copyIN9__gnu_cxx17__normal_iteratorIPKN7atcoder13static_modintILi469762049ELPv0EEESt6vectorIS5_SaIS5_EEEEPS5_ET0_T_SE_SD_, symObjAddr: 0x106D8, symBinAddr: 0x1000117E4, symSize: 0x8C }
  - { offsetInCU: 0x46FD0, offset: 0x46FD0, size: 0x8, addend: 0x0, symName: __ZSt18uninitialized_copyIN9__gnu_cxx17__normal_iteratorIPKN7atcoder13static_modintILi469762049ELPv0EEESt6vectorIS5_SaIS5_EEEEPS5_ET0_T_SE_SD_, symObjAddr: 0x10764, symBinAddr: 0x100011870, symSize: 0x34 }
  - { offsetInCU: 0x47037, offset: 0x47037, size: 0x8, addend: 0x0, symName: __ZNK9__gnu_cxx17__normal_iteratorIPKN7atcoder13static_modintILi469762049ELPv0EEESt6vectorIS4_SaIS4_EEE4baseEv, symObjAddr: 0x106C4, symBinAddr: 0x1000117D0, symSize: 0x14 }
  - { offsetInCU: 0x4703F, offset: 0x4703F, size: 0x8, addend: 0x0, symName: __ZSt16__do_uninit_copyIN9__gnu_cxx17__normal_iteratorIPKN7atcoder13static_modintILi469762049ELPv0EEESt6vectorIS5_SaIS5_EEEEPS5_ET0_T_SE_SD_, symObjAddr: 0x106D8, symBinAddr: 0x1000117E4, symSize: 0x8C }
  - { offsetInCU: 0x47064, offset: 0x47064, size: 0x8, addend: 0x0, symName: __ZN9__gnu_cxxeqIPKN7atcoder13static_modintILi469762049ELPv0EEESt6vectorIS4_SaIS4_EEEEbRKNS_17__normal_iteratorIT_T0_EESF_, symObjAddr: 0x10680, symBinAddr: 0x10001178C, symSize: 0x44 }
  - { offsetInCU: 0x4706C, offset: 0x4706C, size: 0x8, addend: 0x0, symName: __ZNK9__gnu_cxx17__normal_iteratorIPKN7atcoder13static_modintILi469762049ELPv0EEESt6vectorIS4_SaIS4_EEE4baseEv, symObjAddr: 0x106C4, symBinAddr: 0x1000117D0, symSize: 0x14 }
  - { offsetInCU: 0x47148, offset: 0x47148, size: 0x8, addend: 0x0, symName: __ZN9__gnu_cxx17__normal_iteratorIPKN7atcoder13static_modintILi469762049ELPv0EEESt6vectorIS4_SaIS4_EEEC1ERKS6_, symObjAddr: 0x10658, symBinAddr: 0x100011764, symSize: 0x28 }
  - { offsetInCU: 0x47150, offset: 0x47150, size: 0x8, addend: 0x0, symName: __ZN9__gnu_cxxeqIPKN7atcoder13static_modintILi469762049ELPv0EEESt6vectorIS4_SaIS4_EEEEbRKNS_17__normal_iteratorIT_T0_EESF_, symObjAddr: 0x10680, symBinAddr: 0x10001178C, symSize: 0x44 }
  - { offsetInCU: 0x471AA, offset: 0x471AA, size: 0x8, addend: 0x0, symName: __ZNSt12_Vector_baseIN7atcoder13static_modintILi469762049ELPv0EEESaIS3_EE17_Vector_impl_dataC2EOS6_, symObjAddr: 0x105E8, symBinAddr: 0x1000116F4, symSize: 0x70 }
  - { offsetInCU: 0x471B2, offset: 0x471B2, size: 0x8, addend: 0x0, symName: __ZN9__gnu_cxx17__normal_iteratorIPKN7atcoder13static_modintILi469762049ELPv0EEESt6vectorIS4_SaIS4_EEEC1ERKS6_, symObjAddr: 0x10658, symBinAddr: 0x100011764, symSize: 0x28 }
  - { offsetInCU: 0x47182, offset: 0x47182, size: 0x8, addend: 0x0, symName: __ZSt4moveIRNSt12_Vector_baseIN7atcoder13static_modintILi469762049ELPv0EEESaIS4_EE12_Vector_implEEONSt16remove_referenceIT_E4typeEOSA_, symObjAddr: 0x105D4, symBinAddr: 0x1000116E0, symSize: 0x14 }
  - { offsetInCU: 0x4718A, offset: 0x4718A, size: 0x8, addend: 0x0, symName: __ZNSt12_Vector_baseIN7atcoder13static_modintILi469762049ELPv0EEESaIS3_EE17_Vector_impl_dataC2EOS6_, symObjAddr: 0x105E8, symBinAddr: 0x1000116F4, symSize: 0x70 }
  - { offsetInCU: 0x471B4, offset: 0x471B4, size: 0x8, addend: 0x0, symName: __ZNSt12_Destroy_auxILb1EE9__destroyIPN7atcoder13static_modintILi469762049ELPv0EEEEEvT_S7_, symObjAddr: 0x105BC, symBinAddr: 0x1000116C8, symSize: 0x18 }
  - { offsetInCU: 0x471BC, offset: 0x471BC, size: 0x8, addend: 0x0, symName: __ZSt4moveIRNSt12_Vector_baseIN7atcoder13static_modintILi469762049ELPv0EEESaIS4_EE12_Vector_implEEONSt16remove_referenceIT_E4typeEOSA_, symObjAddr: 0x105D4, symBinAddr: 0x1000116E0, symSize: 0x14 }
  - { offsetInCU: 0x471E8, offset: 0x471E8, size: 0x8, addend: 0x0, symName: __ZNSt12_Destroy_auxILb0EE9__destroyIPN7atcoder13static_modintILi469762049ELPv0EEEEEvT_S7_, symObjAddr: 0x10570, symBinAddr: 0x10001167C, symSize: 0x4C }
  - { offsetInCU: 0x471F0, offset: 0x471F0, size: 0x8, addend: 0x0, symName: __ZNSt12_Destroy_auxILb1EE9__destroyIPN7atcoder13static_modintILi469762049ELPv0EEEEEvT_S7_, symObjAddr: 0x105BC, symBinAddr: 0x1000116C8, symSize: 0x18 }
  - { offsetInCU: 0x4722A, offset: 0x4722A, size: 0x8, addend: 0x0, symName: __ZSt25__uninitialized_default_nIPN7atcoder13static_modintILi469762049ELPv0EEEmET_S5_T0_, symObjAddr: 0x1051C, symBinAddr: 0x100011628, symSize: 0x54 }
  - { offsetInCU: 0x47232, offset: 0x47232, size: 0x8, addend: 0x0, symName: __ZNSt12_Destroy_auxILb0EE9__destroyIPN7atcoder13static_modintILi469762049ELPv0EEEEEvT_S7_, symObjAddr: 0x10570, symBinAddr: 0x10001167C, symSize: 0x4C }
  - { offsetInCU: 0x472BE, offset: 0x472BE, size: 0x8, addend: 0x0, symName: __ZNSt12_Vector_baseIN7atcoder13static_modintILi469762049ELPv0EEESaIS3_EE11_M_allocateEm, symObjAddr: 0x10454, symBinAddr: 0x100011560, symSize: 0xC8 }
  - { offsetInCU: 0x472C6, offset: 0x472C6, size: 0x8, addend: 0x0, symName: __ZSt25__uninitialized_default_nIPN7atcoder13static_modintILi469762049ELPv0EEEmET_S5_T0_, symObjAddr: 0x1051C, symBinAddr: 0x100011628, symSize: 0x54 }
  - { offsetInCU: 0x47370, offset: 0x47370, size: 0x8, addend: 0x0, symName: __ZNK7atcoder13static_modintILi167772161ELPv0EE3powEx, symObjAddr: 0x103A4, symBinAddr: 0x1000114B0, symSize: 0xB0 }
  - { offsetInCU: 0x47378, offset: 0x47378, size: 0x8, addend: 0x0, symName: __ZNSt12_Vector_baseIN7atcoder13static_modintILi469762049ELPv0EEESaIS3_EE11_M_allocateEm, symObjAddr: 0x10454, symBinAddr: 0x100011560, symSize: 0xC8 }
  - { offsetInCU: 0x473E0, offset: 0x473E0, size: 0x8, addend: 0x0, symName: __ZNKSt5arrayIN7atcoder13static_modintILi167772161ELPv0EEELm23EEixEm, symObjAddr: 0x10380, symBinAddr: 0x10001148C, symSize: 0x24 }
  - { offsetInCU: 0x473E8, offset: 0x473E8, size: 0x8, addend: 0x0, symName: __ZNK7atcoder13static_modintILi167772161ELPv0EE3powEx, symObjAddr: 0x103A4, symBinAddr: 0x1000114B0, symSize: 0xB0 }
  - { offsetInCU: 0x47484, offset: 0x47484, size: 0x8, addend: 0x0, symName: __ZN7atcoder13static_modintILi167772161ELPv0EEC1IyLS1_0EEET_, symObjAddr: 0x10340, symBinAddr: 0x10001144C, symSize: 0x40 }
  - { offsetInCU: 0x4748C, offset: 0x4748C, size: 0x8, addend: 0x0, symName: __ZNKSt5arrayIN7atcoder13static_modintILi167772161ELPv0EEELm23EEixEm, symObjAddr: 0x10380, symBinAddr: 0x10001148C, symSize: 0x24 }
  - { offsetInCU: 0x47484, offset: 0x47484, size: 0x8, addend: 0x0, symName: __ZNKSt5arrayIN7atcoder13static_modintILi167772161ELPv0EEELm26EEixEm, symObjAddr: 0x1031C, symBinAddr: 0x100011428, symSize: 0x24 }
  - { offsetInCU: 0x4748C, offset: 0x4748C, size: 0x8, addend: 0x0, symName: __ZN7atcoder13static_modintILi167772161ELPv0EEC1IyLS1_0EEET_, symObjAddr: 0x10340, symBinAddr: 0x10001144C, symSize: 0x40 }
  - { offsetInCU: 0x474BF, offset: 0x474BF, size: 0x8, addend: 0x0, symName: __ZNKSt5arrayIN7atcoder13static_modintILi167772161ELPv0EEELm24EEixEm, symObjAddr: 0x102F8, symBinAddr: 0x100011404, symSize: 0x24 }
  - { offsetInCU: 0x474C7, offset: 0x474C7, size: 0x8, addend: 0x0, symName: __ZNKSt5arrayIN7atcoder13static_modintILi167772161ELPv0EEELm26EEixEm, symObjAddr: 0x1031C, symBinAddr: 0x100011428, symSize: 0x24 }
  - { offsetInCU: 0x474F6, offset: 0x474F6, size: 0x8, addend: 0x0, symName: __ZN7atcodermiERKNS_13static_modintILi167772161ELPv0EEES4_, symObjAddr: 0x102C4, symBinAddr: 0x1000113D0, symSize: 0x34 }
  - { offsetInCU: 0x474FE, offset: 0x474FE, size: 0x8, addend: 0x0, symName: __ZNKSt5arrayIN7atcoder13static_modintILi167772161ELPv0EEELm24EEixEm, symObjAddr: 0x102F8, symBinAddr: 0x100011404, symSize: 0x24 }
  - { offsetInCU: 0x4752F, offset: 0x4752F, size: 0x8, addend: 0x0, symName: __ZN7atcoderplERKNS_13static_modintILi167772161ELPv0EEES4_, symObjAddr: 0x10290, symBinAddr: 0x10001139C, symSize: 0x34 }
  - { offsetInCU: 0x47537, offset: 0x47537, size: 0x8, addend: 0x0, symName: __ZN7atcodermiERKNS_13static_modintILi167772161ELPv0EEES4_, symObjAddr: 0x102C4, symBinAddr: 0x1000113D0, symSize: 0x34 }
  - { offsetInCU: 0x47641, offset: 0x47641, size: 0x8, addend: 0x0, symName: __ZN7atcoder8internal8fft_infoINS_13static_modintILi167772161ELPv0EEELi3ELS3_0EEC1Ev, symObjAddr: 0xFEA0, symBinAddr: 0x100010FAC, symSize: 0x3F0 }
  - { offsetInCU: 0x47649, offset: 0x47649, size: 0x8, addend: 0x0, symName: __ZN7atcoderplERKNS_13static_modintILi167772161ELPv0EEES4_, symObjAddr: 0x10290, symBinAddr: 0x10001139C, symSize: 0x34 }
  - { offsetInCU: 0x47773, offset: 0x47773, size: 0x8, addend: 0x0, symName: __ZNSt5arrayIN7atcoder13static_modintILi167772161ELPv0EEELm23EEC1Ev, symObjAddr: 0xFE54, symBinAddr: 0x100010F60, symSize: 0x4C }
  - { offsetInCU: 0x4777B, offset: 0x4777B, size: 0x8, addend: 0x0, symName: __ZN7atcoder8internal8fft_infoINS_13static_modintILi167772161ELPv0EEELi3ELS3_0EEC1Ev, symObjAddr: 0xFEA0, symBinAddr: 0x100010FAC, symSize: 0x3F0 }
  - { offsetInCU: 0x477B7, offset: 0x477B7, size: 0x8, addend: 0x0, symName: __ZNSt5arrayIN7atcoder13static_modintILi167772161ELPv0EEELm24EEC1Ev, symObjAddr: 0xFE08, symBinAddr: 0x100010F14, symSize: 0x4C }
  - { offsetInCU: 0x477BF, offset: 0x477BF, size: 0x8, addend: 0x0, symName: __ZNSt5arrayIN7atcoder13static_modintILi167772161ELPv0EEELm23EEC1Ev, symObjAddr: 0xFE54, symBinAddr: 0x100010F60, symSize: 0x4C }
  - { offsetInCU: 0x477FB, offset: 0x477FB, size: 0x8, addend: 0x0, symName: __ZNSt5arrayIN7atcoder13static_modintILi167772161ELPv0EEELm26EEC1Ev, symObjAddr: 0xFDBC, symBinAddr: 0x100010EC8, symSize: 0x4C }
  - { offsetInCU: 0x47803, offset: 0x47803, size: 0x8, addend: 0x0, symName: __ZNSt5arrayIN7atcoder13static_modintILi167772161ELPv0EEELm24EEC1Ev, symObjAddr: 0xFE08, symBinAddr: 0x100010F14, symSize: 0x4C }
  - { offsetInCU: 0x477E2, offset: 0x477E2, size: 0x8, addend: 0x0, symName: __ZNSt6vectorIN7atcoder13static_modintILi167772161ELPv0EEESaIS3_EE15_M_erase_at_endEPS3_, symObjAddr: 0xFD34, symBinAddr: 0x100010E40, symSize: 0x88 }
  - { offsetInCU: 0x477EA, offset: 0x477EA, size: 0x8, addend: 0x0, symName: __ZNSt5arrayIN7atcoder13static_modintILi167772161ELPv0EEELm26EEC1Ev, symObjAddr: 0xFDBC, symBinAddr: 0x100010EC8, symSize: 0x4C }
  - { offsetInCU: 0x47878, offset: 0x47878, size: 0x8, addend: 0x0, symName: __ZNSt6vectorIN7atcoder13static_modintILi167772161ELPv0EEESaIS3_EE17_M_default_appendEm, symObjAddr: 0xFB34, symBinAddr: 0x100010C40, symSize: 0x200 }
  - { offsetInCU: 0x47880, offset: 0x47880, size: 0x8, addend: 0x0, symName: __ZNSt6vectorIN7atcoder13static_modintILi167772161ELPv0EEESaIS3_EE15_M_erase_at_endEPS3_, symObjAddr: 0xFD34, symBinAddr: 0x100010E40, symSize: 0x88 }
  - { offsetInCU: 0x47928, offset: 0x47928, size: 0x8, addend: 0x0, symName: __ZNKSt6vectorIN7atcoder13static_modintILi167772161ELPv0EEESaIS3_EE12_M_check_lenEmPKc, symObjAddr: 0xFA64, symBinAddr: 0x100010B70, symSize: 0xD0 }
  - { offsetInCU: 0x47930, offset: 0x47930, size: 0x8, addend: 0x0, symName: __ZNSt6vectorIN7atcoder13static_modintILi167772161ELPv0EEESaIS3_EE17_M_default_appendEm, symObjAddr: 0xFB34, symBinAddr: 0x100010C40, symSize: 0x200 }
  - { offsetInCU: 0x47982, offset: 0x47982, size: 0x8, addend: 0x0, symName: __ZSt18uninitialized_copyIN9__gnu_cxx17__normal_iteratorIPKN7atcoder13static_modintILi167772161ELPv0EEESt6vectorIS5_SaIS5_EEEEPS5_ET0_T_SE_SD_, symObjAddr: 0xFA30, symBinAddr: 0x100010B3C, symSize: 0x34 }
  - { offsetInCU: 0x4798A, offset: 0x4798A, size: 0x8, addend: 0x0, symName: __ZNKSt6vectorIN7atcoder13static_modintILi167772161ELPv0EEESaIS3_EE12_M_check_lenEmPKc, symObjAddr: 0xFA64, symBinAddr: 0x100010B70, symSize: 0xD0 }
  - { offsetInCU: 0x479FD, offset: 0x479FD, size: 0x8, addend: 0x0, symName: __ZSt16__do_uninit_copyIN9__gnu_cxx17__normal_iteratorIPKN7atcoder13static_modintILi167772161ELPv0EEESt6vectorIS5_SaIS5_EEEEPS5_ET0_T_SE_SD_, symObjAddr: 0xF9A4, symBinAddr: 0x100010AB0, symSize: 0x8C }
  - { offsetInCU: 0x47A05, offset: 0x47A05, size: 0x8, addend: 0x0, symName: __ZSt18uninitialized_copyIN9__gnu_cxx17__normal_iteratorIPKN7atcoder13static_modintILi167772161ELPv0EEESt6vectorIS5_SaIS5_EEEEPS5_ET0_T_SE_SD_, symObjAddr: 0xFA30, symBinAddr: 0x100010B3C, symSize: 0x34 }
  - { offsetInCU: 0x47A6C, offset: 0x47A6C, size: 0x8, addend: 0x0, symName: __ZNK9__gnu_cxx17__normal_iteratorIPKN7atcoder13static_modintILi167772161ELPv0EEESt6vectorIS4_SaIS4_EEE4baseEv, symObjAddr: 0xF990, symBinAddr: 0x100010A9C, symSize: 0x14 }
  - { offsetInCU: 0x47A74, offset: 0x47A74, size: 0x8, addend: 0x0, symName: __ZSt16__do_uninit_copyIN9__gnu_cxx17__normal_iteratorIPKN7atcoder13static_modintILi167772161ELPv0EEESt6vectorIS5_SaIS5_EEEEPS5_ET0_T_SE_SD_, symObjAddr: 0xF9A4, symBinAddr: 0x100010AB0, symSize: 0x8C }
  - { offsetInCU: 0x47A99, offset: 0x47A99, size: 0x8, addend: 0x0, symName: __ZN9__gnu_cxxeqIPKN7atcoder13static_modintILi167772161ELPv0EEESt6vectorIS4_SaIS4_EEEEbRKNS_17__normal_iteratorIT_T0_EESF_, symObjAddr: 0xF94C, symBinAddr: 0x100010A58, symSize: 0x44 }
  - { offsetInCU: 0x47AA1, offset: 0x47AA1, size: 0x8, addend: 0x0, symName: __ZNK9__gnu_cxx17__normal_iteratorIPKN7atcoder13static_modintILi167772161ELPv0EEESt6vectorIS4_SaIS4_EEE4baseEv, symObjAddr: 0xF990, symBinAddr: 0x100010A9C, symSize: 0x14 }
  - { offsetInCU: 0x47B7D, offset: 0x47B7D, size: 0x8, addend: 0x0, symName: __ZN9__gnu_cxx17__normal_iteratorIPKN7atcoder13static_modintILi167772161ELPv0EEESt6vectorIS4_SaIS4_EEEC1ERKS6_, symObjAddr: 0xF924, symBinAddr: 0x100010A30, symSize: 0x28 }
  - { offsetInCU: 0x47B85, offset: 0x47B85, size: 0x8, addend: 0x0, symName: __ZN9__gnu_cxxeqIPKN7atcoder13static_modintILi167772161ELPv0EEESt6vectorIS4_SaIS4_EEEEbRKNS_17__normal_iteratorIT_T0_EESF_, symObjAddr: 0xF94C, symBinAddr: 0x100010A58, symSize: 0x44 }
  - { offsetInCU: 0x47BDF, offset: 0x47BDF, size: 0x8, addend: 0x0, symName: __ZNSt12_Vector_baseIN7atcoder13static_modintILi167772161ELPv0EEESaIS3_EE17_Vector_impl_dataC2EOS6_, symObjAddr: 0xF8B4, symBinAddr: 0x1000109C0, symSize: 0x70 }
  - { offsetInCU: 0x47BE7, offset: 0x47BE7, size: 0x8, addend: 0x0, symName: __ZN9__gnu_cxx17__normal_iteratorIPKN7atcoder13static_modintILi167772161ELPv0EEESt6vectorIS4_SaIS4_EEEC1ERKS6_, symObjAddr: 0xF924, symBinAddr: 0x100010A30, symSize: 0x28 }
  - { offsetInCU: 0x47BB7, offset: 0x47BB7, size: 0x8, addend: 0x0, symName: __ZSt4moveIRNSt12_Vector_baseIN7atcoder13static_modintILi167772161ELPv0EEESaIS4_EE12_Vector_implEEONSt16remove_referenceIT_E4typeEOSA_, symObjAddr: 0xF8A0, symBinAddr: 0x1000109AC, symSize: 0x14 }
  - { offsetInCU: 0x47BBF, offset: 0x47BBF, size: 0x8, addend: 0x0, symName: __ZNSt12_Vector_baseIN7atcoder13static_modintILi167772161ELPv0EEESaIS3_EE17_Vector_impl_dataC2EOS6_, symObjAddr: 0xF8B4, symBinAddr: 0x1000109C0, symSize: 0x70 }
  - { offsetInCU: 0x47BE9, offset: 0x47BE9, size: 0x8, addend: 0x0, symName: __ZNSt12_Destroy_auxILb1EE9__destroyIPN7atcoder13static_modintILi167772161ELPv0EEEEEvT_S7_, symObjAddr: 0xF888, symBinAddr: 0x100010994, symSize: 0x18 }
  - { offsetInCU: 0x47BF1, offset: 0x47BF1, size: 0x8, addend: 0x0, symName: __ZSt4moveIRNSt12_Vector_baseIN7atcoder13static_modintILi167772161ELPv0EEESaIS4_EE12_Vector_implEEONSt16remove_referenceIT_E4typeEOSA_, symObjAddr: 0xF8A0, symBinAddr: 0x1000109AC, symSize: 0x14 }
  - { offsetInCU: 0x47C1D, offset: 0x47C1D, size: 0x8, addend: 0x0, symName: __ZNSt12_Destroy_auxILb0EE9__destroyIPN7atcoder13static_modintILi167772161ELPv0EEEEEvT_S7_, symObjAddr: 0xF83C, symBinAddr: 0x100010948, symSize: 0x4C }
  - { offsetInCU: 0x47C25, offset: 0x47C25, size: 0x8, addend: 0x0, symName: __ZNSt12_Destroy_auxILb1EE9__destroyIPN7atcoder13static_modintILi167772161ELPv0EEEEEvT_S7_, symObjAddr: 0xF888, symBinAddr: 0x100010994, symSize: 0x18 }
  - { offsetInCU: 0x47C5F, offset: 0x47C5F, size: 0x8, addend: 0x0, symName: __ZSt25__uninitialized_default_nIPN7atcoder13static_modintILi167772161ELPv0EEEmET_S5_T0_, symObjAddr: 0xF7E8, symBinAddr: 0x1000108F4, symSize: 0x54 }
  - { offsetInCU: 0x47C67, offset: 0x47C67, size: 0x8, addend: 0x0, symName: __ZNSt12_Destroy_auxILb0EE9__destroyIPN7atcoder13static_modintILi167772161ELPv0EEEEEvT_S7_, symObjAddr: 0xF83C, symBinAddr: 0x100010948, symSize: 0x4C }
  - { offsetInCU: 0x47CF3, offset: 0x47CF3, size: 0x8, addend: 0x0, symName: __ZNSt12_Vector_baseIN7atcoder13static_modintILi167772161ELPv0EEESaIS3_EE11_M_allocateEm, symObjAddr: 0xF720, symBinAddr: 0x10001082C, symSize: 0xC8 }
  - { offsetInCU: 0x47CFB, offset: 0x47CFB, size: 0x8, addend: 0x0, symName: __ZSt25__uninitialized_default_nIPN7atcoder13static_modintILi167772161ELPv0EEEmET_S5_T0_, symObjAddr: 0xF7E8, symBinAddr: 0x1000108F4, symSize: 0x54 }
  - { offsetInCU: 0x47DA5, offset: 0x47DA5, size: 0x8, addend: 0x0, symName: __ZNK7atcoder13static_modintILi754974721ELPv0EE3powEx, symObjAddr: 0xF670, symBinAddr: 0x10001077C, symSize: 0xB0 }
  - { offsetInCU: 0x47DAD, offset: 0x47DAD, size: 0x8, addend: 0x0, symName: __ZNSt12_Vector_baseIN7atcoder13static_modintILi167772161ELPv0EEESaIS3_EE11_M_allocateEm, symObjAddr: 0xF720, symBinAddr: 0x10001082C, symSize: 0xC8 }
  - { offsetInCU: 0x47E15, offset: 0x47E15, size: 0x8, addend: 0x0, symName: __ZNKSt5arrayIN7atcoder13static_modintILi754974721ELPv0EEELm22EEixEm, symObjAddr: 0xF64C, symBinAddr: 0x100010758, symSize: 0x24 }
  - { offsetInCU: 0x47E1D, offset: 0x47E1D, size: 0x8, addend: 0x0, symName: __ZNK7atcoder13static_modintILi754974721ELPv0EE3powEx, symObjAddr: 0xF670, symBinAddr: 0x10001077C, symSize: 0xB0 }
  - { offsetInCU: 0x47EB9, offset: 0x47EB9, size: 0x8, addend: 0x0, symName: __ZN7atcoder13static_modintILi754974721ELPv0EEC1IyLS1_0EEET_, symObjAddr: 0xF60C, symBinAddr: 0x100010718, symSize: 0x40 }
  - { offsetInCU: 0x47EC1, offset: 0x47EC1, size: 0x8, addend: 0x0, symName: __ZNKSt5arrayIN7atcoder13static_modintILi754974721ELPv0EEELm22EEixEm, symObjAddr: 0xF64C, symBinAddr: 0x100010758, symSize: 0x24 }
  - { offsetInCU: 0x47EB9, offset: 0x47EB9, size: 0x8, addend: 0x0, symName: __ZNKSt5arrayIN7atcoder13static_modintILi754974721ELPv0EEELm25EEixEm, symObjAddr: 0xF5E8, symBinAddr: 0x1000106F4, symSize: 0x24 }
  - { offsetInCU: 0x47EC1, offset: 0x47EC1, size: 0x8, addend: 0x0, symName: __ZN7atcoder13static_modintILi754974721ELPv0EEC1IyLS1_0EEET_, symObjAddr: 0xF60C, symBinAddr: 0x100010718, symSize: 0x40 }
  - { offsetInCU: 0x47EF4, offset: 0x47EF4, size: 0x8, addend: 0x0, symName: __ZNKSt5arrayIN7atcoder13static_modintILi754974721ELPv0EEELm23EEixEm, symObjAddr: 0xF5C4, symBinAddr: 0x1000106D0, symSize: 0x24 }
  - { offsetInCU: 0x47EFC, offset: 0x47EFC, size: 0x8, addend: 0x0, symName: __ZNKSt5arrayIN7atcoder13static_modintILi754974721ELPv0EEELm25EEixEm, symObjAddr: 0xF5E8, symBinAddr: 0x1000106F4, symSize: 0x24 }
  - { offsetInCU: 0x47F2B, offset: 0x47F2B, size: 0x8, addend: 0x0, symName: __ZN7atcodermiERKNS_13static_modintILi754974721ELPv0EEES4_, symObjAddr: 0xF590, symBinAddr: 0x10001069C, symSize: 0x34 }
  - { offsetInCU: 0x47F33, offset: 0x47F33, size: 0x8, addend: 0x0, symName: __ZNKSt5arrayIN7atcoder13static_modintILi754974721ELPv0EEELm23EEixEm, symObjAddr: 0xF5C4, symBinAddr: 0x1000106D0, symSize: 0x24 }
  - { offsetInCU: 0x47F64, offset: 0x47F64, size: 0x8, addend: 0x0, symName: __ZN7atcoderplERKNS_13static_modintILi754974721ELPv0EEES4_, symObjAddr: 0xF55C, symBinAddr: 0x100010668, symSize: 0x34 }
  - { offsetInCU: 0x47F6C, offset: 0x47F6C, size: 0x8, addend: 0x0, symName: __ZN7atcodermiERKNS_13static_modintILi754974721ELPv0EEES4_, symObjAddr: 0xF590, symBinAddr: 0x10001069C, symSize: 0x34 }
  - { offsetInCU: 0x48077, offset: 0x48077, size: 0x8, addend: 0x0, symName: __ZN7atcoder8internal8fft_infoINS_13static_modintILi754974721ELPv0EEELi11ELS3_0EEC1Ev, symObjAddr: 0xF16C, symBinAddr: 0x100010278, symSize: 0x3F0 }
  - { offsetInCU: 0x4807F, offset: 0x4807F, size: 0x8, addend: 0x0, symName: __ZN7atcoderplERKNS_13static_modintILi754974721ELPv0EEES4_, symObjAddr: 0xF55C, symBinAddr: 0x100010668, symSize: 0x34 }
  - { offsetInCU: 0x481A8, offset: 0x481A8, size: 0x8, addend: 0x0, symName: __ZNSt5arrayIN7atcoder13static_modintILi754974721ELPv0EEELm22EEC1Ev, symObjAddr: 0xF120, symBinAddr: 0x10001022C, symSize: 0x4C }
  - { offsetInCU: 0x481B0, offset: 0x481B0, size: 0x8, addend: 0x0, symName: __ZN7atcoder8internal8fft_infoINS_13static_modintILi754974721ELPv0EEELi11ELS3_0EEC1Ev, symObjAddr: 0xF16C, symBinAddr: 0x100010278, symSize: 0x3F0 }
  - { offsetInCU: 0x481EC, offset: 0x481EC, size: 0x8, addend: 0x0, symName: __ZNSt5arrayIN7atcoder13static_modintILi754974721ELPv0EEELm23EEC1Ev, symObjAddr: 0xF0D4, symBinAddr: 0x1000101E0, symSize: 0x4C }
  - { offsetInCU: 0x481F4, offset: 0x481F4, size: 0x8, addend: 0x0, symName: __ZNSt5arrayIN7atcoder13static_modintILi754974721ELPv0EEELm22EEC1Ev, symObjAddr: 0xF120, symBinAddr: 0x10001022C, symSize: 0x4C }
  - { offsetInCU: 0x48230, offset: 0x48230, size: 0x8, addend: 0x0, symName: __ZNSt5arrayIN7atcoder13static_modintILi754974721ELPv0EEELm25EEC1Ev, symObjAddr: 0xF088, symBinAddr: 0x100010194, symSize: 0x4C }
  - { offsetInCU: 0x48238, offset: 0x48238, size: 0x8, addend: 0x0, symName: __ZNSt5arrayIN7atcoder13static_modintILi754974721ELPv0EEELm23EEC1Ev, symObjAddr: 0xF0D4, symBinAddr: 0x1000101E0, symSize: 0x4C }
  - { offsetInCU: 0x48217, offset: 0x48217, size: 0x8, addend: 0x0, symName: __ZNSt6vectorIN7atcoder13static_modintILi754974721ELPv0EEESaIS3_EE15_M_erase_at_endEPS3_, symObjAddr: 0xF000, symBinAddr: 0x10001010C, symSize: 0x88 }
  - { offsetInCU: 0x4821F, offset: 0x4821F, size: 0x8, addend: 0x0, symName: __ZNSt5arrayIN7atcoder13static_modintILi754974721ELPv0EEELm25EEC1Ev, symObjAddr: 0xF088, symBinAddr: 0x100010194, symSize: 0x4C }
  - { offsetInCU: 0x482AD, offset: 0x482AD, size: 0x8, addend: 0x0, symName: __ZNSt6vectorIN7atcoder13static_modintILi754974721ELPv0EEESaIS3_EE17_M_default_appendEm, symObjAddr: 0xEE00, symBinAddr: 0x10000FF0C, symSize: 0x200 }
  - { offsetInCU: 0x482B5, offset: 0x482B5, size: 0x8, addend: 0x0, symName: __ZNSt6vectorIN7atcoder13static_modintILi754974721ELPv0EEESaIS3_EE15_M_erase_at_endEPS3_, symObjAddr: 0xF000, symBinAddr: 0x10001010C, symSize: 0x88 }
  - { offsetInCU: 0x4835D, offset: 0x4835D, size: 0x8, addend: 0x0, symName: __ZNKSt6vectorIN7atcoder13static_modintILi754974721ELPv0EEESaIS3_EE12_M_check_lenEmPKc, symObjAddr: 0xED30, symBinAddr: 0x10000FE3C, symSize: 0xD0 }
  - { offsetInCU: 0x48365, offset: 0x48365, size: 0x8, addend: 0x0, symName: __ZNSt6vectorIN7atcoder13static_modintILi754974721ELPv0EEESaIS3_EE17_M_default_appendEm, symObjAddr: 0xEE00, symBinAddr: 0x10000FF0C, symSize: 0x200 }
  - { offsetInCU: 0x483B7, offset: 0x483B7, size: 0x8, addend: 0x0, symName: __ZSt18uninitialized_copyIN9__gnu_cxx17__normal_iteratorIPKN7atcoder13static_modintILi754974721ELPv0EEESt6vectorIS5_SaIS5_EEEEPS5_ET0_T_SE_SD_, symObjAddr: 0xECFC, symBinAddr: 0x10000FE08, symSize: 0x34 }
  - { offsetInCU: 0x483BF, offset: 0x483BF, size: 0x8, addend: 0x0, symName: __ZNKSt6vectorIN7atcoder13static_modintILi754974721ELPv0EEESaIS3_EE12_M_check_lenEmPKc, symObjAddr: 0xED30, symBinAddr: 0x10000FE3C, symSize: 0xD0 }
  - { offsetInCU: 0x48432, offset: 0x48432, size: 0x8, addend: 0x0, symName: __ZSt16__do_uninit_copyIN9__gnu_cxx17__normal_iteratorIPKN7atcoder13static_modintILi754974721ELPv0EEESt6vectorIS5_SaIS5_EEEEPS5_ET0_T_SE_SD_, symObjAddr: 0xEC70, symBinAddr: 0x10000FD7C, symSize: 0x8C }
  - { offsetInCU: 0x4843A, offset: 0x4843A, size: 0x8, addend: 0x0, symName: __ZSt18uninitialized_copyIN9__gnu_cxx17__normal_iteratorIPKN7atcoder13static_modintILi754974721ELPv0EEESt6vectorIS5_SaIS5_EEEEPS5_ET0_T_SE_SD_, symObjAddr: 0xECFC, symBinAddr: 0x10000FE08, symSize: 0x34 }
  - { offsetInCU: 0x484A1, offset: 0x484A1, size: 0x8, addend: 0x0, symName: __ZNK9__gnu_cxx17__normal_iteratorIPKN7atcoder13static_modintILi754974721ELPv0EEESt6vectorIS4_SaIS4_EEE4baseEv, symObjAddr: 0xEC5C, symBinAddr: 0x10000FD68, symSize: 0x14 }
  - { offsetInCU: 0x484A9, offset: 0x484A9, size: 0x8, addend: 0x0, symName: __ZSt16__do_uninit_copyIN9__gnu_cxx17__normal_iteratorIPKN7atcoder13static_modintILi754974721ELPv0EEESt6vectorIS5_SaIS5_EEEEPS5_ET0_T_SE_SD_, symObjAddr: 0xEC70, symBinAddr: 0x10000FD7C, symSize: 0x8C }
  - { offsetInCU: 0x484CE, offset: 0x484CE, size: 0x8, addend: 0x0, symName: __ZN9__gnu_cxxeqIPKN7atcoder13static_modintILi754974721ELPv0EEESt6vectorIS4_SaIS4_EEEEbRKNS_17__normal_iteratorIT_T0_EESF_, symObjAddr: 0xEC18, symBinAddr: 0x10000FD24, symSize: 0x44 }
  - { offsetInCU: 0x484D6, offset: 0x484D6, size: 0x8, addend: 0x0, symName: __ZNK9__gnu_cxx17__normal_iteratorIPKN7atcoder13static_modintILi754974721ELPv0EEESt6vectorIS4_SaIS4_EEE4baseEv, symObjAddr: 0xEC5C, symBinAddr: 0x10000FD68, symSize: 0x14 }
  - { offsetInCU: 0x485B2, offset: 0x485B2, size: 0x8, addend: 0x0, symName: __ZN9__gnu_cxx17__normal_iteratorIPKN7atcoder13static_modintILi754974721ELPv0EEESt6vectorIS4_SaIS4_EEEC1ERKS6_, symObjAddr: 0xEBF0, symBinAddr: 0x10000FCFC, symSize: 0x28 }
  - { offsetInCU: 0x485BA, offset: 0x485BA, size: 0x8, addend: 0x0, symName: __ZN9__gnu_cxxeqIPKN7atcoder13static_modintILi754974721ELPv0EEESt6vectorIS4_SaIS4_EEEEbRKNS_17__normal_iteratorIT_T0_EESF_, symObjAddr: 0xEC18, symBinAddr: 0x10000FD24, symSize: 0x44 }
  - { offsetInCU: 0x48614, offset: 0x48614, size: 0x8, addend: 0x0, symName: __ZNSt12_Vector_baseIN7atcoder13static_modintILi754974721ELPv0EEESaIS3_EE17_Vector_impl_dataC2EOS6_, symObjAddr: 0xEB80, symBinAddr: 0x10000FC8C, symSize: 0x70 }
  - { offsetInCU: 0x4861C, offset: 0x4861C, size: 0x8, addend: 0x0, symName: __ZN9__gnu_cxx17__normal_iteratorIPKN7atcoder13static_modintILi754974721ELPv0EEESt6vectorIS4_SaIS4_EEEC1ERKS6_, symObjAddr: 0xEBF0, symBinAddr: 0x10000FCFC, symSize: 0x28 }
  - { offsetInCU: 0x485EC, offset: 0x485EC, size: 0x8, addend: 0x0, symName: __ZSt4moveIRNSt12_Vector_baseIN7atcoder13static_modintILi754974721ELPv0EEESaIS4_EE12_Vector_implEEONSt16remove_referenceIT_E4typeEOSA_, symObjAddr: 0xEB6C, symBinAddr: 0x10000FC78, symSize: 0x14 }
  - { offsetInCU: 0x485F4, offset: 0x485F4, size: 0x8, addend: 0x0, symName: __ZNSt12_Vector_baseIN7atcoder13static_modintILi754974721ELPv0EEESaIS3_EE17_Vector_impl_dataC2EOS6_, symObjAddr: 0xEB80, symBinAddr: 0x10000FC8C, symSize: 0x70 }
  - { offsetInCU: 0x4861E, offset: 0x4861E, size: 0x8, addend: 0x0, symName: __ZNSt12_Destroy_auxILb1EE9__destroyIPN7atcoder13static_modintILi754974721ELPv0EEEEEvT_S7_, symObjAddr: 0xEB54, symBinAddr: 0x10000FC60, symSize: 0x18 }
  - { offsetInCU: 0x48626, offset: 0x48626, size: 0x8, addend: 0x0, symName: __ZSt4moveIRNSt12_Vector_baseIN7atcoder13static_modintILi754974721ELPv0EEESaIS4_EE12_Vector_implEEONSt16remove_referenceIT_E4typeEOSA_, symObjAddr: 0xEB6C, symBinAddr: 0x10000FC78, symSize: 0x14 }
  - { offsetInCU: 0x48652, offset: 0x48652, size: 0x8, addend: 0x0, symName: __ZNSt12_Destroy_auxILb0EE9__destroyIPN7atcoder13static_modintILi754974721ELPv0EEEEEvT_S7_, symObjAddr: 0xEB08, symBinAddr: 0x10000FC14, symSize: 0x4C }
  - { offsetInCU: 0x4865A, offset: 0x4865A, size: 0x8, addend: 0x0, symName: __ZNSt12_Destroy_auxILb1EE9__destroyIPN7atcoder13static_modintILi754974721ELPv0EEEEEvT_S7_, symObjAddr: 0xEB54, symBinAddr: 0x10000FC60, symSize: 0x18 }
  - { offsetInCU: 0x48694, offset: 0x48694, size: 0x8, addend: 0x0, symName: __ZSt25__uninitialized_default_nIPN7atcoder13static_modintILi754974721ELPv0EEEmET_S5_T0_, symObjAddr: 0xEAB4, symBinAddr: 0x10000FBC0, symSize: 0x54 }
  - { offsetInCU: 0x4869C, offset: 0x4869C, size: 0x8, addend: 0x0, symName: __ZNSt12_Destroy_auxILb0EE9__destroyIPN7atcoder13static_modintILi754974721ELPv0EEEEEvT_S7_, symObjAddr: 0xEB08, symBinAddr: 0x10000FC14, symSize: 0x4C }
  - { offsetInCU: 0x48728, offset: 0x48728, size: 0x8, addend: 0x0, symName: __ZNSt12_Vector_baseIN7atcoder13static_modintILi754974721ELPv0EEESaIS3_EE11_M_allocateEm, symObjAddr: 0xE9EC, symBinAddr: 0x10000FAF8, symSize: 0xC8 }
  - { offsetInCU: 0x48730, offset: 0x48730, size: 0x8, addend: 0x0, symName: __ZSt25__uninitialized_default_nIPN7atcoder13static_modintILi754974721ELPv0EEEmET_S5_T0_, symObjAddr: 0xEAB4, symBinAddr: 0x10000FBC0, symSize: 0x54 }
  - { offsetInCU: 0x487D6, offset: 0x487D6, size: 0x8, addend: 0x0, symName: __ZSt8_DestroyIxEvPT_, symObjAddr: 0xE9CC, symBinAddr: 0x10000FAD8, symSize: 0x20 }
  - { offsetInCU: 0x487DE, offset: 0x487DE, size: 0x8, addend: 0x0, symName: __ZNSt12_Vector_baseIN7atcoder13static_modintILi754974721ELPv0EEESaIS3_EE11_M_allocateEm, symObjAddr: 0xE9EC, symBinAddr: 0x10000FAF8, symSize: 0xC8 }
  - { offsetInCU: 0x48808, offset: 0x48808, size: 0x8, addend: 0x0, symName: __ZSt11__addressofIxEPT_RS0_, symObjAddr: 0xE9B8, symBinAddr: 0x10000FAC4, symSize: 0x14 }
  - { offsetInCU: 0x48810, offset: 0x48810, size: 0x8, addend: 0x0, symName: __ZSt8_DestroyIxEvPT_, symObjAddr: 0xE9CC, symBinAddr: 0x10000FAD8, symSize: 0x20 }
  - { offsetInCU: 0x4883E, offset: 0x4883E, size: 0x8, addend: 0x0, symName: __ZNSt15__new_allocatorIxE10deallocateEPxm, symObjAddr: 0xE988, symBinAddr: 0x10000FA94, symSize: 0x30 }
  - { offsetInCU: 0x48846, offset: 0x48846, size: 0x8, addend: 0x0, symName: __ZSt11__addressofIxEPT_RS0_, symObjAddr: 0xE9B8, symBinAddr: 0x10000FAC4, symSize: 0x14 }
  - { offsetInCU: 0x48889, offset: 0x48889, size: 0x8, addend: 0x0, symName: __ZNSt15__new_allocatorImE10deallocateEPmm, symObjAddr: 0xE958, symBinAddr: 0x10000FA64, symSize: 0x30 }
  - { offsetInCU: 0x48891, offset: 0x48891, size: 0x8, addend: 0x0, symName: __ZNSt15__new_allocatorIxE10deallocateEPxm, symObjAddr: 0xE988, symBinAddr: 0x10000FA94, symSize: 0x30 }
  - { offsetInCU: 0x488D4, offset: 0x488D4, size: 0x8, addend: 0x0, symName: __ZNKSt15_Deque_iteratorISt4pairIN7atcoder13static_modintILi998244353ELPv0EEES4_ERS5_PS5_EdeEv, symObjAddr: 0xE940, symBinAddr: 0x10000FA4C, symSize: 0x18 }
  - { offsetInCU: 0x488DC, offset: 0x488DC, size: 0x8, addend: 0x0, symName: __ZNSt15__new_allocatorImE10deallocateEPmm, symObjAddr: 0xE958, symBinAddr: 0x10000FA64, symSize: 0x30 }
  - { offsetInCU: 0x488FF, offset: 0x488FF, size: 0x8, addend: 0x0, symName: __ZNSt15_Deque_iteratorISt4pairIN7atcoder13static_modintILi998244353ELPv0EEES4_ERS5_PS5_EmmEv, symObjAddr: 0xE8D4, symBinAddr: 0x10000F9E0, symSize: 0x6C }
  - { offsetInCU: 0x48907, offset: 0x48907, size: 0x8, addend: 0x0, symName: __ZNKSt15_Deque_iteratorISt4pairIN7atcoder13static_modintILi998244353ELPv0EEES4_ERS5_PS5_EdeEv, symObjAddr: 0xE940, symBinAddr: 0x10000FA4C, symSize: 0x18 }
  - { offsetInCU: 0x4892A, offset: 0x4892A, size: 0x8, addend: 0x0, symName: __ZNSt6vectorISt4pairIN7atcoder13static_modintILi998244353ELPv0EEES4_ESaIS5_EE4backEv, symObjAddr: 0xE89C, symBinAddr: 0x10000F9A8, symSize: 0x38 }
  - { offsetInCU: 0x48932, offset: 0x48932, size: 0x8, addend: 0x0, symName: __ZNSt15_Deque_iteratorISt4pairIN7atcoder13static_modintILi998244353ELPv0EEES4_ERS5_PS5_EmmEv, symObjAddr: 0xE8D4, symBinAddr: 0x10000F9E0, symSize: 0x6C }
  - { offsetInCU: 0x48955, offset: 0x48955, size: 0x8, addend: 0x0, symName: __ZNSt6vectorISt4pairIN7atcoder13static_modintILi998244353ELPv0EEES4_ESaIS5_EE17_M_realloc_insertIJS5_EEEvN9__gnu_cxx17__normal_iteratorIPS5_S7_EEDpOT_, symObjAddr: 0xE710, symBinAddr: 0x10000F81C, symSize: 0x18C }
  - { offsetInCU: 0x4895D, offset: 0x4895D, size: 0x8, addend: 0x0, symName: __ZNSt6vectorISt4pairIN7atcoder13static_modintILi998244353ELPv0EEES4_ESaIS5_EE4backEv, symObjAddr: 0xE89C, symBinAddr: 0x10000F9A8, symSize: 0x38 }
  - { offsetInCU: 0x48A4C, offset: 0x48A4C, size: 0x8, addend: 0x0, symName: __ZNSt6vectorISt4pairIN7atcoder13static_modintILi998244353ELPv0EEES4_ESaIS5_EE5beginEv, symObjAddr: 0xE6EC, symBinAddr: 0x10000F7F8, symSize: 0x24 }
  - { offsetInCU: 0x48A54, offset: 0x48A54, size: 0x8, addend: 0x0, symName: __ZNSt6vectorISt4pairIN7atcoder13static_modintILi998244353ELPv0EEES4_ESaIS5_EE17_M_realloc_insertIJS5_EEEvN9__gnu_cxx17__normal_iteratorIPS5_S7_EEDpOT_, symObjAddr: 0xE710, symBinAddr: 0x10000F81C, symSize: 0x18C }
  - { offsetInCU: 0x48A79, offset: 0x48A79, size: 0x8, addend: 0x0, symName: __ZN9__gnu_cxxmiIPSt4pairIN7atcoder13static_modintILi998244353ELPv0EEES5_ESt6vectorIS6_SaIS6_EEEENS_17__normal_iteratorIT_T0_E15difference_typeERKSE_SH_, symObjAddr: 0xE6AC, symBinAddr: 0x10000F7B8, symSize: 0x40 }
  - { offsetInCU: 0x48A81, offset: 0x48A81, size: 0x8, addend: 0x0, symName: __ZNSt6vectorISt4pairIN7atcoder13static_modintILi998244353ELPv0EEES4_ESaIS5_EE5beginEv, symObjAddr: 0xE6EC, symBinAddr: 0x10000F7F8, symSize: 0x24 }
  - { offsetInCU: 0x48ACA, offset: 0x48ACA, size: 0x8, addend: 0x0, symName: __ZNKSt6vectorISt4pairIN7atcoder13static_modintILi998244353ELPv0EEES4_ESaIS5_EE12_M_check_lenEmPKc, symObjAddr: 0xE5DC, symBinAddr: 0x10000F6E8, symSize: 0xD0 }
  - { offsetInCU: 0x48AD2, offset: 0x48AD2, size: 0x8, addend: 0x0, symName: __ZN9__gnu_cxxmiIPSt4pairIN7atcoder13static_modintILi998244353ELPv0EEES5_ESt6vectorIS6_SaIS6_EEEENS_17__normal_iteratorIT_T0_E15difference_typeERKSE_SH_, symObjAddr: 0xE6AC, symBinAddr: 0x10000F7B8, symSize: 0x40 }
  - { offsetInCU: 0x48B28, offset: 0x48B28, size: 0x8, addend: 0x0, symName: __ZNSt6vectorISt4pairIN7atcoder13static_modintILi998244353ELPv0EEES4_ESaIS5_EE3endEv, symObjAddr: 0xE5B4, symBinAddr: 0x10000F6C0, symSize: 0x28 }
  - { offsetInCU: 0x48B30, offset: 0x48B30, size: 0x8, addend: 0x0, symName: __ZNKSt6vectorISt4pairIN7atcoder13static_modintILi998244353ELPv0EEES4_ESaIS5_EE12_M_check_lenEmPKc, symObjAddr: 0xE5DC, symBinAddr: 0x10000F6E8, symSize: 0xD0 }
  - { offsetInCU: 0x48B99, offset: 0x48B99, size: 0x8, addend: 0x0, symName: __ZSt7forwardISt4pairIN7atcoder13static_modintILi998244353ELPv0EEES4_EEOT_RNSt16remove_referenceIS6_E4typeE, symObjAddr: 0xE5A0, symBinAddr: 0x10000F6AC, symSize: 0x14 }
  - { offsetInCU: 0x48BA1, offset: 0x48BA1, size: 0x8, addend: 0x0, symName: __ZNSt6vectorISt4pairIN7atcoder13static_modintILi998244353ELPv0EEES4_ESaIS5_EE3endEv, symObjAddr: 0xE5B4, symBinAddr: 0x10000F6C0, symSize: 0x28 }
  - { offsetInCU: 0x48BCF, offset: 0x48BCF, size: 0x8, addend: 0x0, symName: __ZNSt5dequeISt4pairIN7atcoder13static_modintILi998244353ELPv0EEES4_ESaIS5_EE8pop_backEv, symObjAddr: 0xE528, symBinAddr: 0x10000F634, symSize: 0x78 }
  - { offsetInCU: 0x48BD7, offset: 0x48BD7, size: 0x8, addend: 0x0, symName: __ZSt7forwardISt4pairIN7atcoder13static_modintILi998244353ELPv0EEES4_EEOT_RNSt16remove_referenceIS6_E4typeE, symObjAddr: 0xE5A0, symBinAddr: 0x10000F6AC, symSize: 0x14 }
  - { offsetInCU: 0x48C23, offset: 0x48C23, size: 0x8, addend: 0x0, symName: __ZSt8_DestroyIPSt4pairIN7atcoder13static_modintILi998244353ELPv0EEES4_EEvT_S7_, symObjAddr: 0xE4E0, symBinAddr: 0x10000F5EC, symSize: 0x48 }
  - { offsetInCU: 0x48C2B, offset: 0x48C2B, size: 0x8, addend: 0x0, symName: __ZNSt5dequeISt4pairIN7atcoder13static_modintILi998244353ELPv0EEES4_ESaIS5_EE8pop_backEv, symObjAddr: 0xE528, symBinAddr: 0x10000F634, symSize: 0x78 }
  - { offsetInCU: 0x48C97, offset: 0x48C97, size: 0x8, addend: 0x0, symName: __ZSteqRKSt15_Deque_iteratorISt4pairIN7atcoder13static_modintILi998244353ELPv0EEES4_ERS5_PS5_ESA_, symObjAddr: 0xE4B0, symBinAddr: 0x10000F5BC, symSize: 0x30 }
  - { offsetInCU: 0x48C9F, offset: 0x48C9F, size: 0x8, addend: 0x0, symName: __ZSt8_DestroyIPSt4pairIN7atcoder13static_modintILi998244353ELPv0EEES4_EEvT_S7_, symObjAddr: 0xE4E0, symBinAddr: 0x10000F5EC, symSize: 0x48 }
  - { offsetInCU: 0x48CD6, offset: 0x48CD6, size: 0x8, addend: 0x0, symName: __ZNSt5dequeISt4pairIN7atcoder13static_modintILi998244353ELPv0EEES4_ESaIS5_EE9push_backERKS5_, symObjAddr: 0xE420, symBinAddr: 0x10000F52C, symSize: 0x90 }
  - { offsetInCU: 0x48CDE, offset: 0x48CDE, size: 0x8, addend: 0x0, symName: __ZSteqRKSt15_Deque_iteratorISt4pairIN7atcoder13static_modintILi998244353ELPv0EEES4_ERS5_PS5_ESA_, symObjAddr: 0xE4B0, symBinAddr: 0x10000F5BC, symSize: 0x30 }
  - { offsetInCU: 0x48D9C, offset: 0x48D9C, size: 0x8, addend: 0x0, symName: __ZNKSt11_Deque_baseISt4pairIN7atcoder13static_modintILi998244353ELPv0EEES4_ESaIS5_EE20_M_get_map_allocatorEv, symObjAddr: 0xE3D8, symBinAddr: 0x10000F4E4, symSize: 0x48 }
  - { offsetInCU: 0x48DA4, offset: 0x48DA4, size: 0x8, addend: 0x0, symName: __ZNSt5dequeISt4pairIN7atcoder13static_modintILi998244353ELPv0EEES4_ESaIS5_EE9push_backERKS5_, symObjAddr: 0xE420, symBinAddr: 0x10000F52C, symSize: 0x90 }
  - { offsetInCU: 0x48E17, offset: 0x48E17, size: 0x8, addend: 0x0, symName: __ZNSt11_Deque_baseISt4pairIN7atcoder13static_modintILi998244353ELPv0EEES4_ESaIS5_EE18_M_deallocate_nodeEPS5_, symObjAddr: 0xE348, symBinAddr: 0x10000F454, symSize: 0x90 }
  - { offsetInCU: 0x48E1F, offset: 0x48E1F, size: 0x8, addend: 0x0, symName: __ZNKSt11_Deque_baseISt4pairIN7atcoder13static_modintILi998244353ELPv0EEES4_ESaIS5_EE20_M_get_map_allocatorEv, symObjAddr: 0xE3D8, symBinAddr: 0x10000F4E4, symSize: 0x48 }
  - { offsetInCU: 0x48EBF, offset: 0x48EBF, size: 0x8, addend: 0x0, symName: __ZNSt5dequeISt4pairIN7atcoder13static_modintILi998244353ELPv0EEES4_ESaIS5_EE12emplace_backIJS5_EEERS5_DpOT_, symObjAddr: 0xE2A0, symBinAddr: 0x10000F3AC, symSize: 0xA8 }
  - { offsetInCU: 0x48EC7, offset: 0x48EC7, size: 0x8, addend: 0x0, symName: __ZNSt11_Deque_baseISt4pairIN7atcoder13static_modintILi998244353ELPv0EEES4_ESaIS5_EE18_M_deallocate_nodeEPS5_, symObjAddr: 0xE348, symBinAddr: 0x10000F454, symSize: 0x90 }
  - { offsetInCU: 0x48F39, offset: 0x48F39, size: 0x8, addend: 0x0, symName: __ZNSt11_Deque_baseISt4pairIN7atcoder13static_modintILi998244353ELPv0EEES4_ESaIS5_EE17_M_initialize_mapEm, symObjAddr: 0xE114, symBinAddr: 0x10000F220, symSize: 0x18C }
  - { offsetInCU: 0x48F41, offset: 0x48F41, size: 0x8, addend: 0x0, symName: __ZNSt5dequeISt4pairIN7atcoder13static_modintILi998244353ELPv0EEES4_ESaIS5_EE12emplace_backIJS5_EEERS5_DpOT_, symObjAddr: 0xE2A0, symBinAddr: 0x10000F3AC, symSize: 0xA8 }
  - { offsetInCU: 0x49024, offset: 0x49024, size: 0x8, addend: 0x0, symName: __ZNSt11_Deque_baseISt4pairIN7atcoder13static_modintILi998244353ELPv0EEES4_ESaIS5_EE11_Deque_implC1Ev, symObjAddr: 0xE0DC, symBinAddr: 0x10000F1E8, symSize: 0x38 }
  - { offsetInCU: 0x4902C, offset: 0x4902C, size: 0x8, addend: 0x0, symName: __ZNSt11_Deque_baseISt4pairIN7atcoder13static_modintILi998244353ELPv0EEES4_ESaIS5_EE17_M_initialize_mapEm, symObjAddr: 0xE114, symBinAddr: 0x10000F220, symSize: 0x18C }
  - { offsetInCU: 0x49074, offset: 0x49074, size: 0x8, addend: 0x0, symName: __ZSt12__niter_wrapIN9__gnu_cxx17__normal_iteratorIPiSt6vectorIiSaIiEEEES2_ET_S7_T0_, symObjAddr: 0xE0A0, symBinAddr: 0x10000F1AC, symSize: 0x3C }
  - { offsetInCU: 0x4907C, offset: 0x4907C, size: 0x8, addend: 0x0, symName: __ZNSt11_Deque_baseISt4pairIN7atcoder13static_modintILi998244353ELPv0EEES4_ESaIS5_EE11_Deque_implC1Ev, symObjAddr: 0xE0DC, symBinAddr: 0x10000F1E8, symSize: 0x38 }
  - { offsetInCU: 0x490C1, offset: 0x490C1, size: 0x8, addend: 0x0, symName: __ZSt14__copy_move_a1ILb0EPiS0_ET1_T0_S2_S1_, symObjAddr: 0xE074, symBinAddr: 0x10000F180, symSize: 0x2C }
  - { offsetInCU: 0x490C9, offset: 0x490C9, size: 0x8, addend: 0x0, symName: __ZSt12__niter_wrapIN9__gnu_cxx17__normal_iteratorIPiSt6vectorIiSaIiEEEES2_ET_S7_T0_, symObjAddr: 0xE0A0, symBinAddr: 0x10000F1AC, symSize: 0x3C }
  - { offsetInCU: 0x49129, offset: 0x49129, size: 0x8, addend: 0x0, symName: __ZSt12__niter_baseIPiSt6vectorIiSaIiEEET_N9__gnu_cxx17__normal_iteratorIS4_T0_EE, symObjAddr: 0xE054, symBinAddr: 0x10000F160, symSize: 0x20 }
  - { offsetInCU: 0x49131, offset: 0x49131, size: 0x8, addend: 0x0, symName: __ZSt14__copy_move_a1ILb0EPiS0_ET1_T0_S2_S1_, symObjAddr: 0xE074, symBinAddr: 0x10000F180, symSize: 0x2C }
  - { offsetInCU: 0x49165, offset: 0x49165, size: 0x8, addend: 0x0, symName: __ZSt9__fill_a1IPiSt6vectorIiSaIiEEiEvN9__gnu_cxx17__normal_iteratorIT_T0_EES8_RKT1_, symObjAddr: 0xE004, symBinAddr: 0x10000F110, symSize: 0x50 }
  - { offsetInCU: 0x4916D, offset: 0x4916D, size: 0x8, addend: 0x0, symName: __ZSt12__niter_baseIPiSt6vectorIiSaIiEEET_N9__gnu_cxx17__normal_iteratorIS4_T0_EE, symObjAddr: 0xE054, symBinAddr: 0x10000F160, symSize: 0x20 }
  - { offsetInCU: 0x491CC, offset: 0x491CC, size: 0x8, addend: 0x0, symName: __ZSt22__uninitialized_copy_aIPKiPiiET0_T_S4_S3_RSaIT1_E, symObjAddr: 0xDFA8, symBinAddr: 0x10000F0B4, symSize: 0x5C }
  - { offsetInCU: 0x491D4, offset: 0x491D4, size: 0x8, addend: 0x0, symName: __ZSt9__fill_a1IPiSt6vectorIiSaIiEEiEvN9__gnu_cxx17__normal_iteratorIT_T0_EES8_RKT1_, symObjAddr: 0xE004, symBinAddr: 0x10000F110, symSize: 0x50 }
  - { offsetInCU: 0x49286, offset: 0x49286, size: 0x8, addend: 0x0, symName: __ZNKSt16initializer_listIiE4sizeEv, symObjAddr: 0xDF90, symBinAddr: 0x10000F09C, symSize: 0x18 }
  - { offsetInCU: 0x4928E, offset: 0x4928E, size: 0x8, addend: 0x0, symName: __ZSt22__uninitialized_copy_aIPKiPiiET0_T_S4_S3_RSaIT1_E, symObjAddr: 0xDFA8, symBinAddr: 0x10000F0B4, symSize: 0x5C }
  - { offsetInCU: 0x492DE, offset: 0x492DE, size: 0x8, addend: 0x0, symName: __ZNSt12_Vector_baseIiSaIiEE17_Vector_impl_data12_M_copy_dataERKS2_, symObjAddr: 0xDF48, symBinAddr: 0x10000F054, symSize: 0x48 }
  - { offsetInCU: 0x492E6, offset: 0x492E6, size: 0x8, addend: 0x0, symName: __ZNKSt16initializer_listIiE4sizeEv, symObjAddr: 0xDF90, symBinAddr: 0x10000F09C, symSize: 0x18 }
  - { offsetInCU: 0x49315, offset: 0x49315, size: 0x8, addend: 0x0, symName: __ZSt26__unguarded_insertion_sortIN9__gnu_cxx17__normal_iteratorIPiSt6vectorIiSaIiEEEENS0_5__ops15_Iter_comp_iterIZN7atcoder8internal11sa_doublingERKS5_EUliiE_EEEvT_SF_T0_, symObjAddr: 0xDE94, symBinAddr: 0x10000EFA0, symSize: 0xB4 }
  - { offsetInCU: 0x4931D, offset: 0x4931D, size: 0x8, addend: 0x0, symName: __ZNSt12_Vector_baseIiSaIiEE17_Vector_impl_data12_M_copy_dataERKS2_, symObjAddr: 0xDF48, symBinAddr: 0x10000F054, symSize: 0x48 }
  - { offsetInCU: 0x49397, offset: 0x49397, size: 0x8, addend: 0x0, symName: __ZSt16__insertion_sortIN9__gnu_cxx17__normal_iteratorIPiSt6vectorIiSaIiEEEENS0_5__ops15_Iter_comp_iterIZN7atcoder8internal11sa_doublingERKS5_EUliiE_EEEvT_SF_T0_, symObjAddr: 0xDD50, symBinAddr: 0x10000EE5C, symSize: 0x144 }
  - { offsetInCU: 0x4939F, offset: 0x4939F, size: 0x8, addend: 0x0, symName: __ZSt26__unguarded_insertion_sortIN9__gnu_cxx17__normal_iteratorIPiSt6vectorIiSaIiEEEENS0_5__ops15_Iter_comp_iterIZN7atcoder8internal11sa_doublingERKS5_EUliiE_EEEvT_SF_T0_, symObjAddr: 0xDE94, symBinAddr: 0x10000EFA0, symSize: 0xB4 }
  - { offsetInCU: 0x4943D, offset: 0x4943D, size: 0x8, addend: 0x0, symName: __ZSt27__unguarded_partition_pivotIN9__gnu_cxx17__normal_iteratorIPiSt6vectorIiSaIiEEEENS0_5__ops15_Iter_comp_iterIZN7atcoder8internal11sa_doublingERKS5_EUliiE_EEET_SF_SF_T0_, symObjAddr: 0xDC70, symBinAddr: 0x10000ED7C, symSize: 0xE0 }
  - { offsetInCU: 0x49445, offset: 0x49445, size: 0x8, addend: 0x0, symName: __ZSt16__insertion_sortIN9__gnu_cxx17__normal_iteratorIPiSt6vectorIiSaIiEEEENS0_5__ops15_Iter_comp_iterIZN7atcoder8internal11sa_doublingERKS5_EUliiE_EEEvT_SF_T0_, symObjAddr: 0xDD50, symBinAddr: 0x10000EE5C, symSize: 0x144 }
  - { offsetInCU: 0x494AC, offset: 0x494AC, size: 0x8, addend: 0x0, symName: __ZSt14__partial_sortIN9__gnu_cxx17__normal_iteratorIPiSt6vectorIiSaIiEEEENS0_5__ops15_Iter_comp_iterIZN7atcoder8internal11sa_doublingERKS5_EUliiE_EEEvT_SF_SF_T0_, symObjAddr: 0xDC04, symBinAddr: 0x10000ED10, symSize: 0x6C }
  - { offsetInCU: 0x494B4, offset: 0x494B4, size: 0x8, addend: 0x0, symName: __ZSt27__unguarded_partition_pivotIN9__gnu_cxx17__normal_iteratorIPiSt6vectorIiSaIiEEEENS0_5__ops15_Iter_comp_iterIZN7atcoder8internal11sa_doublingERKS5_EUliiE_EEET_SF_SF_T0_, symObjAddr: 0xDC70, symBinAddr: 0x10000ED7C, symSize: 0xE0 }
  - { offsetInCU: 0x4951B, offset: 0x4951B, size: 0x8, addend: 0x0, symName: __ZNSt20__uninitialized_copyILb1EE13__uninit_copyIN9__gnu_cxx17__normal_iteratorIPKiSt6vectorIiSaIiEEEEPiEET0_T_SC_SB_, symObjAddr: 0xDBD8, symBinAddr: 0x10000ECE4, symSize: 0x2C }
  - { offsetInCU: 0x49523, offset: 0x49523, size: 0x8, addend: 0x0, symName: __ZSt14__partial_sortIN9__gnu_cxx17__normal_iteratorIPiSt6vectorIiSaIiEEEENS0_5__ops15_Iter_comp_iterIZN7atcoder8internal11sa_doublingERKS5_EUliiE_EEEvT_SF_SF_T0_, symObjAddr: 0xDC04, symBinAddr: 0x10000ED10, symSize: 0x6C }
  - { offsetInCU: 0x49576, offset: 0x49576, size: 0x8, addend: 0x0, symName: __ZSt10_ConstructIiJRKiEEvPT_DpOT0_, symObjAddr: 0xDB68, symBinAddr: 0x10000EC74, symSize: 0x70 }
  - { offsetInCU: 0x4957E, offset: 0x4957E, size: 0x8, addend: 0x0, symName: __ZNSt20__uninitialized_copyILb1EE13__uninit_copyIN9__gnu_cxx17__normal_iteratorIPKiSt6vectorIiSaIiEEEEPiEET0_T_SC_SB_, symObjAddr: 0xDBD8, symBinAddr: 0x10000ECE4, symSize: 0x2C }
  - { offsetInCU: 0x495C2, offset: 0x495C2, size: 0x8, addend: 0x0, symName: __ZSt11__addressofIiEPT_RS0_, symObjAddr: 0xDB54, symBinAddr: 0x10000EC60, symSize: 0x14 }
  - { offsetInCU: 0x495CA, offset: 0x495CA, size: 0x8, addend: 0x0, symName: __ZSt10_ConstructIiJRKiEEvPT_DpOT0_, symObjAddr: 0xDB68, symBinAddr: 0x10000EC74, symSize: 0x70 }
  - { offsetInCU: 0x495F4, offset: 0x495F4, size: 0x8, addend: 0x0, symName: __ZSt26__unguarded_insertion_sortIN9__gnu_cxx17__normal_iteratorIPiSt6vectorIiSaIiEEEENS0_5__ops15_Iter_comp_iterIZN7atcoder8internal8sa_naiveERKS5_EUliiE_EEEvT_SF_T0_, symObjAddr: 0xDAE0, symBinAddr: 0x10000EBEC, symSize: 0x74 }
  - { offsetInCU: 0x495FC, offset: 0x495FC, size: 0x8, addend: 0x0, symName: __ZSt11__addressofIiEPT_RS0_, symObjAddr: 0xDB54, symBinAddr: 0x10000EC60, symSize: 0x14 }
  - { offsetInCU: 0x49676, offset: 0x49676, size: 0x8, addend: 0x0, symName: __ZSt16__insertion_sortIN9__gnu_cxx17__normal_iteratorIPiSt6vectorIiSaIiEEEENS0_5__ops15_Iter_comp_iterIZN7atcoder8internal8sa_naiveERKS5_EUliiE_EEEvT_SF_T0_, symObjAddr: 0xD9D4, symBinAddr: 0x10000EAE0, symSize: 0x10C }
  - { offsetInCU: 0x4967E, offset: 0x4967E, size: 0x8, addend: 0x0, symName: __ZSt26__unguarded_insertion_sortIN9__gnu_cxx17__normal_iteratorIPiSt6vectorIiSaIiEEEENS0_5__ops15_Iter_comp_iterIZN7atcoder8internal8sa_naiveERKS5_EUliiE_EEEvT_SF_T0_, symObjAddr: 0xDAE0, symBinAddr: 0x10000EBEC, symSize: 0x74 }
  - { offsetInCU: 0x49720, offset: 0x49720, size: 0x8, addend: 0x0, symName: __ZNK9__gnu_cxx17__normal_iteratorIPiSt6vectorIiSaIiEEEplEl, symObjAddr: 0xD994, symBinAddr: 0x10000EAA0, symSize: 0x40 }
  - { offsetInCU: 0x49728, offset: 0x49728, size: 0x8, addend: 0x0, symName: __ZSt16__insertion_sortIN9__gnu_cxx17__normal_iteratorIPiSt6vectorIiSaIiEEEENS0_5__ops15_Iter_comp_iterIZN7atcoder8internal8sa_naiveERKS5_EUliiE_EEEvT_SF_T0_, symObjAddr: 0xD9D4, symBinAddr: 0x10000EAE0, symSize: 0x10C }
  - { offsetInCU: 0x49758, offset: 0x49758, size: 0x8, addend: 0x0, symName: __ZSt27__unguarded_partition_pivotIN9__gnu_cxx17__normal_iteratorIPiSt6vectorIiSaIiEEEENS0_5__ops15_Iter_comp_iterIZN7atcoder8internal8sa_naiveERKS5_EUliiE_EEET_SF_SF_T0_, symObjAddr: 0xD8F8, symBinAddr: 0x10000EA04, symSize: 0x9C }
  - { offsetInCU: 0x49760, offset: 0x49760, size: 0x8, addend: 0x0, symName: __ZNK9__gnu_cxx17__normal_iteratorIPiSt6vectorIiSaIiEEEplEl, symObjAddr: 0xD994, symBinAddr: 0x10000EAA0, symSize: 0x40 }
  - { offsetInCU: 0x497C7, offset: 0x497C7, size: 0x8, addend: 0x0, symName: __ZSt14__partial_sortIN9__gnu_cxx17__normal_iteratorIPiSt6vectorIiSaIiEEEENS0_5__ops15_Iter_comp_iterIZN7atcoder8internal8sa_naiveERKS5_EUliiE_EEEvT_SF_SF_T0_, symObjAddr: 0xD8AC, symBinAddr: 0x10000E9B8, symSize: 0x4C }
  - { offsetInCU: 0x497CF, offset: 0x497CF, size: 0x8, addend: 0x0, symName: __ZSt27__unguarded_partition_pivotIN9__gnu_cxx17__normal_iteratorIPiSt6vectorIiSaIiEEEENS0_5__ops15_Iter_comp_iterIZN7atcoder8internal8sa_naiveERKS5_EUliiE_EEET_SF_SF_T0_, symObjAddr: 0xD8F8, symBinAddr: 0x10000EA04, symSize: 0x9C }
  - { offsetInCU: 0x49882, offset: 0x49882, size: 0x8, addend: 0x0, symName: __ZNSt10_Head_baseILm0ERxLb0EEC2ES0_, symObjAddr: 0xD888, symBinAddr: 0x10000E994, symSize: 0x24 }
  - { offsetInCU: 0x4988A, offset: 0x4988A, size: 0x8, addend: 0x0, symName: __ZSt14__partial_sortIN9__gnu_cxx17__normal_iteratorIPiSt6vectorIiSaIiEEEENS0_5__ops15_Iter_comp_iterIZN7atcoder8internal8sa_naiveERKS5_EUliiE_EEEvT_SF_SF_T0_, symObjAddr: 0xD8AC, symBinAddr: 0x10000E9B8, symSize: 0x4C }
  - { offsetInCU: 0x498D9, offset: 0x498D9, size: 0x8, addend: 0x0, symName: __ZNSt11_Tuple_implILm1EJRxEEC2ES0_, symObjAddr: 0xD860, symBinAddr: 0x10000E96C, symSize: 0x28 }
  - { offsetInCU: 0x498E1, offset: 0x498E1, size: 0x8, addend: 0x0, symName: __ZNSt10_Head_baseILm0ERxLb0EEC2ES0_, symObjAddr: 0xD888, symBinAddr: 0x10000E994, symSize: 0x24 }
  - { offsetInCU: 0x498E5, offset: 0x498E5, size: 0x8, addend: 0x0, symName: __ZSt10destroy_atIiEvPT_, symObjAddr: 0xD84C, symBinAddr: 0x10000E958, symSize: 0x14 }
  - { offsetInCU: 0x498ED, offset: 0x498ED, size: 0x8, addend: 0x0, symName: __ZNSt11_Tuple_implILm1EJRxEEC2ES0_, symObjAddr: 0xD860, symBinAddr: 0x10000E96C, symSize: 0x28 }
  - { offsetInCU: 0x49917, offset: 0x49917, size: 0x8, addend: 0x0, symName: __ZSt14__relocate_a_1IiiENSt9enable_ifIXsrSt24__is_bitwise_relocatableIT_vE5valueEPS2_E4typeES4_S4_S4_RSaIT0_E, symObjAddr: 0xD798, symBinAddr: 0x10000E8A4, symSize: 0xB4 }
  - { offsetInCU: 0x4991F, offset: 0x4991F, size: 0x8, addend: 0x0, symName: __ZSt10destroy_atIiEvPT_, symObjAddr: 0xD84C, symBinAddr: 0x10000E958, symSize: 0x14 }
  - { offsetInCU: 0x49A12, offset: 0x49A12, size: 0x8, addend: 0x0, symName: __ZN9__gnu_cxx17__normal_iteratorIPivEC1ERKS1_, symObjAddr: 0xD770, symBinAddr: 0x10000E87C, symSize: 0x28 }
  - { offsetInCU: 0x49A1A, offset: 0x49A1A, size: 0x8, addend: 0x0, symName: __ZSt14__relocate_a_1IiiENSt9enable_ifIXsrSt24__is_bitwise_relocatableIT_vE5valueEPS2_E4typeES4_S4_S4_RSaIT0_E, symObjAddr: 0xD798, symBinAddr: 0x10000E8A4, symSize: 0xB4 }
  - { offsetInCU: 0x49A13, offset: 0x49A13, size: 0x8, addend: 0x0, symName: __ZSt12__niter_baseIPiET_S1_, symObjAddr: 0xD75C, symBinAddr: 0x10000E868, symSize: 0x14 }
  - { offsetInCU: 0x49A1B, offset: 0x49A1B, size: 0x8, addend: 0x0, symName: __ZN9__gnu_cxx17__normal_iteratorIPivEC1ERKS1_, symObjAddr: 0xD770, symBinAddr: 0x10000E87C, symSize: 0x28 }
  - { offsetInCU: 0x49A6A, offset: 0x49A6A, size: 0x8, addend: 0x0, symName: __ZSt25__uninitialized_default_nIPimET_S1_T0_, symObjAddr: 0xD708, symBinAddr: 0x10000E814, symSize: 0x54 }
  - { offsetInCU: 0x49A72, offset: 0x49A72, size: 0x8, addend: 0x0, symName: __ZSt12__niter_baseIPiET_S1_, symObjAddr: 0xD75C, symBinAddr: 0x10000E868, symSize: 0x14 }
  - { offsetInCU: 0x49AC8, offset: 0x49AC8, size: 0x8, addend: 0x0, symName: __ZSt20uninitialized_fill_nIPimiET_S1_T0_RKT1_, symObjAddr: 0xD6D4, symBinAddr: 0x10000E7E0, symSize: 0x34 }
  - { offsetInCU: 0x49AD0, offset: 0x49AD0, size: 0x8, addend: 0x0, symName: __ZSt25__uninitialized_default_nIPimET_S1_T0_, symObjAddr: 0xD708, symBinAddr: 0x10000E814, symSize: 0x54 }
  - { offsetInCU: 0x49B40, offset: 0x49B40, size: 0x8, addend: 0x0, symName: __ZSt18__do_uninit_fill_nIPimiET_S1_T0_RKT1_, symObjAddr: 0xD674, symBinAddr: 0x10000E780, symSize: 0x60 }
  - { offsetInCU: 0x49B48, offset: 0x49B48, size: 0x8, addend: 0x0, symName: __ZSt20uninitialized_fill_nIPimiET_S1_T0_RKT1_, symObjAddr: 0xD6D4, symBinAddr: 0x10000E7E0, symSize: 0x34 }
  - { offsetInCU: 0x49BB8, offset: 0x49BB8, size: 0x8, addend: 0x0, symName: __ZNSt12_Destroy_auxILb1EE9__destroyIPiEEvT_S3_, symObjAddr: 0xD65C, symBinAddr: 0x10000E768, symSize: 0x18 }
  - { offsetInCU: 0x49BC0, offset: 0x49BC0, size: 0x8, addend: 0x0, symName: __ZSt18__do_uninit_fill_nIPimiET_S1_T0_RKT1_, symObjAddr: 0xD674, symBinAddr: 0x10000E780, symSize: 0x60 }
  - { offsetInCU: 0x49BEC, offset: 0x49BEC, size: 0x8, addend: 0x0, symName: __ZNSt12_Destroy_auxILb0EE9__destroyIPiEEvT_S3_, symObjAddr: 0xD610, symBinAddr: 0x10000E71C, symSize: 0x4C }
  - { offsetInCU: 0x49BF4, offset: 0x49BF4, size: 0x8, addend: 0x0, symName: __ZNSt12_Destroy_auxILb1EE9__destroyIPiEEvT_S3_, symObjAddr: 0xD65C, symBinAddr: 0x10000E768, symSize: 0x18 }
  - { offsetInCU: 0x49C5F, offset: 0x49C5F, size: 0x8, addend: 0x0, symName: __ZSt25__uninitialized_default_nIPxmET_S1_T0_, symObjAddr: 0xD5BC, symBinAddr: 0x10000E6C8, symSize: 0x54 }
  - { offsetInCU: 0x49C67, offset: 0x49C67, size: 0x8, addend: 0x0, symName: __ZNSt12_Destroy_auxILb0EE9__destroyIPiEEvT_S3_, symObjAddr: 0xD610, symBinAddr: 0x10000E71C, symSize: 0x4C }
  - { offsetInCU: 0x49CC1, offset: 0x49CC1, size: 0x8, addend: 0x0, symName: __ZNSt12_Vector_baseIxSaIxEE11_M_allocateEm, symObjAddr: 0xD4F4, symBinAddr: 0x10000E600, symSize: 0xC8 }
  - { offsetInCU: 0x49CC9, offset: 0x49CC9, size: 0x8, addend: 0x0, symName: __ZSt25__uninitialized_default_nIPxmET_S1_T0_, symObjAddr: 0xD5BC, symBinAddr: 0x10000E6C8, symSize: 0x54 }
  - { offsetInCU: 0x49D57, offset: 0x49D57, size: 0x8, addend: 0x0, symName: __ZNK7atcoder13static_modintILi469762049ELPv0EE3invEv, symObjAddr: 0xD484, symBinAddr: 0x10000E590, symSize: 0x70 }
  - { offsetInCU: 0x49D5F, offset: 0x49D5F, size: 0x8, addend: 0x0, symName: __ZNSt12_Vector_baseIxSaIxEE11_M_allocateEm, symObjAddr: 0xD4F4, symBinAddr: 0x10000E600, symSize: 0xC8 }
  - { offsetInCU: 0x49E20, offset: 0x49E20, size: 0x8, addend: 0x0, symName: __ZN7atcoder13static_modintILi469762049ELPv0EEC1IiLS1_0EEET_, symObjAddr: 0xD414, symBinAddr: 0x10000E520, symSize: 0x70 }
  - { offsetInCU: 0x49E28, offset: 0x49E28, size: 0x8, addend: 0x0, symName: __ZNK7atcoder13static_modintILi469762049ELPv0EE3invEv, symObjAddr: 0xD484, symBinAddr: 0x10000E590, symSize: 0x70 }
  - { offsetInCU: 0x49E49, offset: 0x49E49, size: 0x8, addend: 0x0, symName: __ZN7atcoder8internal13butterfly_invINS_13static_modintILi469762049ELPv0EEELS3_0EEEvRSt6vectorIT_SaIS6_EE, symObjAddr: 0xCD64, symBinAddr: 0x10000DE70, symSize: 0x6B0 }
  - { offsetInCU: 0x49E51, offset: 0x49E51, size: 0x8, addend: 0x0, symName: __ZN7atcoder13static_modintILi469762049ELPv0EEC1IiLS1_0EEET_, symObjAddr: 0xD414, symBinAddr: 0x10000E520, symSize: 0x70 }
  - { offsetInCU: 0x49F16, offset: 0x49F16, size: 0x8, addend: 0x0, symName: __ZZN7atcoder8internal13butterfly_invINS_13static_modintILi469762049ELPv0EEELS3_0EEEvRSt6vectorIT_SaIS6_EEE4info, symObjAddr: 0x17368, symBinAddr: 0x100028B78, symSize: 0x0 }
  - { offsetInCU: 0x4A0D5, offset: 0x4A0D5, size: 0x8, addend: 0x0, symName: __ZN7atcoder13static_modintILi469762049ELPv0EEmLERKS2_, symObjAddr: 0xCCFC, symBinAddr: 0x10000DE08, symSize: 0x68 }
  - { offsetInCU: 0x4A0DD, offset: 0x4A0DD, size: 0x8, addend: 0x0, symName: __ZN7atcoder8internal13butterfly_invINS_13static_modintILi469762049ELPv0EEELS3_0EEEvRSt6vectorIT_SaIS6_EE, symObjAddr: 0xCD64, symBinAddr: 0x10000DE70, symSize: 0x6B0 }
  - { offsetInCU: 0x4A11C, offset: 0x4A11C, size: 0x8, addend: 0x0, symName: __ZN7atcoder8internal9butterflyINS_13static_modintILi469762049ELPv0EEELS3_0EEEvRSt6vectorIT_SaIS6_EE, symObjAddr: 0xC688, symBinAddr: 0x10000D794, symSize: 0x674 }
  - { offsetInCU: 0x4A124, offset: 0x4A124, size: 0x8, addend: 0x0, symName: __ZN7atcoder13static_modintILi469762049ELPv0EEmLERKS2_, symObjAddr: 0xCCFC, symBinAddr: 0x10000DE08, symSize: 0x68 }
  - { offsetInCU: 0x4A1E4, offset: 0x4A1E4, size: 0x8, addend: 0x0, symName: __ZZN7atcoder8internal9butterflyINS_13static_modintILi469762049ELPv0EEELS3_0EEEvRSt6vectorIT_SaIS6_EEE4info, symObjAddr: 0x17100, symBinAddr: 0x100028910, symSize: 0x0 }
  - { offsetInCU: 0x4A3CA, offset: 0x4A3CA, size: 0x8, addend: 0x0, symName: __ZNSt6vectorIN7atcoder13static_modintILi469762049ELPv0EEESaIS3_EE6resizeEm, symObjAddr: 0xC5D8, symBinAddr: 0x10000D6E4, symSize: 0xB0 }
  - { offsetInCU: 0x4A3D2, offset: 0x4A3D2, size: 0x8, addend: 0x0, symName: __ZN7atcoder8internal9butterflyINS_13static_modintILi469762049ELPv0EEELS3_0EEEvRSt6vectorIT_SaIS6_EE, symObjAddr: 0xC688, symBinAddr: 0x10000D794, symSize: 0x674 }
  - { offsetInCU: 0x4A402, offset: 0x4A402, size: 0x8, addend: 0x0, symName: __ZSt22__uninitialized_copy_aIN9__gnu_cxx17__normal_iteratorIPKN7atcoder13static_modintILi469762049ELPv0EEESt6vectorIS5_SaIS5_EEEEPS5_S5_ET0_T_SE_SD_RSaIT1_E, symObjAddr: 0xC57C, symBinAddr: 0x10000D688, symSize: 0x5C }
  - { offsetInCU: 0x4A40A, offset: 0x4A40A, size: 0x8, addend: 0x0, symName: __ZNSt6vectorIN7atcoder13static_modintILi469762049ELPv0EEESaIS3_EE6resizeEm, symObjAddr: 0xC5D8, symBinAddr: 0x10000D6E4, symSize: 0xB0 }
  - { offsetInCU: 0x4A476, offset: 0x4A476, size: 0x8, addend: 0x0, symName: __ZNKSt6vectorIN7atcoder13static_modintILi469762049ELPv0EEESaIS3_EE3endEv, symObjAddr: 0xC554, symBinAddr: 0x10000D660, symSize: 0x28 }
  - { offsetInCU: 0x4A47E, offset: 0x4A47E, size: 0x8, addend: 0x0, symName: __ZSt22__uninitialized_copy_aIN9__gnu_cxx17__normal_iteratorIPKN7atcoder13static_modintILi469762049ELPv0EEESt6vectorIS5_SaIS5_EEEEPS5_S5_ET0_T_SE_SD_RSaIT1_E, symObjAddr: 0xC57C, symBinAddr: 0x10000D688, symSize: 0x5C }
  - { offsetInCU: 0x4A4A1, offset: 0x4A4A1, size: 0x8, addend: 0x0, symName: __ZNKSt6vectorIN7atcoder13static_modintILi469762049ELPv0EEESaIS3_EE5beginEv, symObjAddr: 0xC530, symBinAddr: 0x10000D63C, symSize: 0x24 }
  - { offsetInCU: 0x4A4A9, offset: 0x4A4A9, size: 0x8, addend: 0x0, symName: __ZNKSt6vectorIN7atcoder13static_modintILi469762049ELPv0EEESaIS3_EE3endEv, symObjAddr: 0xC554, symBinAddr: 0x10000D660, symSize: 0x28 }
  - { offsetInCU: 0x4A4E1, offset: 0x4A4E1, size: 0x8, addend: 0x0, symName: __ZNKSt12_Vector_baseIN7atcoder13static_modintILi469762049ELPv0EEESaIS3_EE19_M_get_Tp_allocatorEv, symObjAddr: 0xC51C, symBinAddr: 0x10000D628, symSize: 0x14 }
  - { offsetInCU: 0x4A4E9, offset: 0x4A4E9, size: 0x8, addend: 0x0, symName: __ZNKSt6vectorIN7atcoder13static_modintILi469762049ELPv0EEESaIS3_EE5beginEv, symObjAddr: 0xC530, symBinAddr: 0x10000D63C, symSize: 0x24 }
  - { offsetInCU: 0x4A58E, offset: 0x4A58E, size: 0x8, addend: 0x0, symName: __ZNSt12_Vector_baseIN7atcoder13static_modintILi469762049ELPv0EEESaIS3_EE12_Vector_implC1EOS6_, symObjAddr: 0xC4B0, symBinAddr: 0x10000D5BC, symSize: 0x6C }
  - { offsetInCU: 0x4A596, offset: 0x4A596, size: 0x8, addend: 0x0, symName: __ZNKSt12_Vector_baseIN7atcoder13static_modintILi469762049ELPv0EEESaIS3_EE19_M_get_Tp_allocatorEv, symObjAddr: 0xC51C, symBinAddr: 0x10000D628, symSize: 0x14 }
  - { offsetInCU: 0x4A5BB, offset: 0x4A5BB, size: 0x8, addend: 0x0, symName: __ZN7atcoder13static_modintILi469762049ELPv0EEpLERKS2_, symObjAddr: 0xC430, symBinAddr: 0x10000D53C, symSize: 0x80 }
  - { offsetInCU: 0x4A5C3, offset: 0x4A5C3, size: 0x8, addend: 0x0, symName: __ZNSt12_Vector_baseIN7atcoder13static_modintILi469762049ELPv0EEESaIS3_EE12_Vector_implC1EOS6_, symObjAddr: 0xC4B0, symBinAddr: 0x10000D5BC, symSize: 0x6C }
  - { offsetInCU: 0x4A5F2, offset: 0x4A5F2, size: 0x8, addend: 0x0, symName: __ZN7atcodermlERKNS_13static_modintILi469762049ELPv0EEES4_, symObjAddr: 0xC3FC, symBinAddr: 0x10000D508, symSize: 0x34 }
  - { offsetInCU: 0x4A5FA, offset: 0x4A5FA, size: 0x8, addend: 0x0, symName: __ZN7atcoder13static_modintILi469762049ELPv0EEpLERKS2_, symObjAddr: 0xC430, symBinAddr: 0x10000D53C, symSize: 0x80 }
  - { offsetInCU: 0x4A62F, offset: 0x4A62F, size: 0x8, addend: 0x0, symName: __ZNKSt6vectorIN7atcoder13static_modintILi469762049ELPv0EEESaIS3_EEixEm, symObjAddr: 0xC3D4, symBinAddr: 0x10000D4E0, symSize: 0x28 }
  - { offsetInCU: 0x4A637, offset: 0x4A637, size: 0x8, addend: 0x0, symName: __ZN7atcodermlERKNS_13static_modintILi469762049ELPv0EEES4_, symObjAddr: 0xC3FC, symBinAddr: 0x10000D508, symSize: 0x34 }
  - { offsetInCU: 0x4A6E2, offset: 0x4A6E2, size: 0x8, addend: 0x0, symName: __ZNSt12_Vector_baseIN7atcoder13static_modintILi469762049ELPv0EEESaIS3_EE17_Vector_impl_dataC2Ev, symObjAddr: 0xC3A8, symBinAddr: 0x10000D4B4, symSize: 0x2C }
  - { offsetInCU: 0x4A6EA, offset: 0x4A6EA, size: 0x8, addend: 0x0, symName: __ZNKSt6vectorIN7atcoder13static_modintILi469762049ELPv0EEESaIS3_EEixEm, symObjAddr: 0xC3D4, symBinAddr: 0x10000D4E0, symSize: 0x28 }
  - { offsetInCU: 0x4A6A8, offset: 0x4A6A8, size: 0x8, addend: 0x0, symName: __ZSt8_DestroyIPN7atcoder13static_modintILi469762049ELPv0EEEEvT_S5_, symObjAddr: 0xC360, symBinAddr: 0x10000D46C, symSize: 0x48 }
  - { offsetInCU: 0x4A6B0, offset: 0x4A6B0, size: 0x8, addend: 0x0, symName: __ZNSt12_Vector_baseIN7atcoder13static_modintILi469762049ELPv0EEESaIS3_EE17_Vector_impl_dataC2Ev, symObjAddr: 0xC3A8, symBinAddr: 0x10000D4B4, symSize: 0x2C }
  - { offsetInCU: 0x4A6EA, offset: 0x4A6EA, size: 0x8, addend: 0x0, symName: __ZSt27__uninitialized_default_n_aIPN7atcoder13static_modintILi469762049ELPv0EEEmS3_ET_S5_T0_RSaIT1_E, symObjAddr: 0xC338, symBinAddr: 0x10000D444, symSize: 0x28 }
  - { offsetInCU: 0x4A6F2, offset: 0x4A6F2, size: 0x8, addend: 0x0, symName: __ZSt8_DestroyIPN7atcoder13static_modintILi469762049ELPv0EEEEvT_S5_, symObjAddr: 0xC360, symBinAddr: 0x10000D46C, symSize: 0x48 }
  - { offsetInCU: 0x4A74D, offset: 0x4A74D, size: 0x8, addend: 0x0, symName: __ZNSt12_Vector_baseIN7atcoder13static_modintILi469762049ELPv0EEESaIS3_EE13_M_deallocateEPS3_m, symObjAddr: 0xC2A8, symBinAddr: 0x10000D3B4, symSize: 0x90 }
  - { offsetInCU: 0x4A755, offset: 0x4A755, size: 0x8, addend: 0x0, symName: __ZSt27__uninitialized_default_n_aIPN7atcoder13static_modintILi469762049ELPv0EEEmS3_ET_S5_T0_RSaIT1_E, symObjAddr: 0xC338, symBinAddr: 0x10000D444, symSize: 0x28 }
  - { offsetInCU: 0x4A807, offset: 0x4A807, size: 0x8, addend: 0x0, symName: __ZNSt12_Vector_baseIN7atcoder13static_modintILi469762049ELPv0EEESaIS3_EE17_M_create_storageEm, symObjAddr: 0xC248, symBinAddr: 0x10000D354, symSize: 0x60 }
  - { offsetInCU: 0x4A80F, offset: 0x4A80F, size: 0x8, addend: 0x0, symName: __ZNSt12_Vector_baseIN7atcoder13static_modintILi469762049ELPv0EEESaIS3_EE13_M_deallocateEPS3_m, symObjAddr: 0xC2A8, symBinAddr: 0x10000D3B4, symSize: 0x90 }
  - { offsetInCU: 0x4A8C6, offset: 0x4A8C6, size: 0x8, addend: 0x0, symName: __ZNSt12_Vector_baseIN7atcoder13static_modintILi469762049ELPv0EEESaIS3_EE12_Vector_implC1ERKS4_, symObjAddr: 0xC1FC, symBinAddr: 0x10000D308, symSize: 0x4C }
  - { offsetInCU: 0x4A8CE, offset: 0x4A8CE, size: 0x8, addend: 0x0, symName: __ZNSt12_Vector_baseIN7atcoder13static_modintILi469762049ELPv0EEESaIS3_EE17_M_create_storageEm, symObjAddr: 0xC248, symBinAddr: 0x10000D354, symSize: 0x60 }
  - { offsetInCU: 0x4A912, offset: 0x4A912, size: 0x8, addend: 0x0, symName: __ZNSt6vectorIN7atcoder13static_modintILi469762049ELPv0EEESaIS3_EE11_S_max_sizeERKS4_, symObjAddr: 0xC1C0, symBinAddr: 0x10000D2CC, symSize: 0x3C }
  - { offsetInCU: 0x4A91A, offset: 0x4A91A, size: 0x8, addend: 0x0, symName: __ZNSt12_Vector_baseIN7atcoder13static_modintILi469762049ELPv0EEESaIS3_EE12_Vector_implC1ERKS4_, symObjAddr: 0xC1FC, symBinAddr: 0x10000D308, symSize: 0x4C }
  - { offsetInCU: 0x4A99C, offset: 0x4A99C, size: 0x8, addend: 0x0, symName: __ZNK7atcoder13static_modintILi167772161ELPv0EE3invEv, symObjAddr: 0xC150, symBinAddr: 0x10000D25C, symSize: 0x70 }
  - { offsetInCU: 0x4A9A4, offset: 0x4A9A4, size: 0x8, addend: 0x0, symName: __ZNSt6vectorIN7atcoder13static_modintILi469762049ELPv0EEESaIS3_EE11_S_max_sizeERKS4_, symObjAddr: 0xC1C0, symBinAddr: 0x10000D2CC, symSize: 0x3C }
  - { offsetInCU: 0x4AA65, offset: 0x4AA65, size: 0x8, addend: 0x0, symName: __ZN7atcoder13static_modintILi167772161ELPv0EEC1IiLS1_0EEET_, symObjAddr: 0xC0E0, symBinAddr: 0x10000D1EC, symSize: 0x70 }
  - { offsetInCU: 0x4AA6D, offset: 0x4AA6D, size: 0x8, addend: 0x0, symName: __ZNK7atcoder13static_modintILi167772161ELPv0EE3invEv, symObjAddr: 0xC150, symBinAddr: 0x10000D25C, symSize: 0x70 }
  - { offsetInCU: 0x4AA8E, offset: 0x4AA8E, size: 0x8, addend: 0x0, symName: __ZN7atcoder8internal13butterfly_invINS_13static_modintILi167772161ELPv0EEELS3_0EEEvRSt6vectorIT_SaIS6_EE, symObjAddr: 0xBA30, symBinAddr: 0x10000CB3C, symSize: 0x6B0 }
  - { offsetInCU: 0x4AA96, offset: 0x4AA96, size: 0x8, addend: 0x0, symName: __ZN7atcoder13static_modintILi167772161ELPv0EEC1IiLS1_0EEET_, symObjAddr: 0xC0E0, symBinAddr: 0x10000D1EC, symSize: 0x70 }
  - { offsetInCU: 0x4AB5B, offset: 0x4AB5B, size: 0x8, addend: 0x0, symName: __ZZN7atcoder8internal13butterfly_invINS_13static_modintILi167772161ELPv0EEELS3_0EEEvRSt6vectorIT_SaIS6_EEE4info, symObjAddr: 0x16EB0, symBinAddr: 0x1000286C0, symSize: 0x0 }
  - { offsetInCU: 0x4AD1A, offset: 0x4AD1A, size: 0x8, addend: 0x0, symName: __ZN7atcoder13static_modintILi167772161ELPv0EEmLERKS2_, symObjAddr: 0xB9C8, symBinAddr: 0x10000CAD4, symSize: 0x68 }
  - { offsetInCU: 0x4AD22, offset: 0x4AD22, size: 0x8, addend: 0x0, symName: __ZN7atcoder8internal13butterfly_invINS_13static_modintILi167772161ELPv0EEELS3_0EEEvRSt6vectorIT_SaIS6_EE, symObjAddr: 0xBA30, symBinAddr: 0x10000CB3C, symSize: 0x6B0 }
  - { offsetInCU: 0x4AD61, offset: 0x4AD61, size: 0x8, addend: 0x0, symName: __ZN7atcoder8internal9butterflyINS_13static_modintILi167772161ELPv0EEELS3_0EEEvRSt6vectorIT_SaIS6_EE, symObjAddr: 0xB354, symBinAddr: 0x10000C460, symSize: 0x674 }
  - { offsetInCU: 0x4AD69, offset: 0x4AD69, size: 0x8, addend: 0x0, symName: __ZN7atcoder13static_modintILi167772161ELPv0EEmLERKS2_, symObjAddr: 0xB9C8, symBinAddr: 0x10000CAD4, symSize: 0x68 }
  - { offsetInCU: 0x4AE29, offset: 0x4AE29, size: 0x8, addend: 0x0, symName: __ZZN7atcoder8internal9butterflyINS_13static_modintILi167772161ELPv0EEELS3_0EEEvRSt6vectorIT_SaIS6_EEE4info, symObjAddr: 0x16C60, symBinAddr: 0x100028470, symSize: 0x0 }
  - { offsetInCU: 0x4B00F, offset: 0x4B00F, size: 0x8, addend: 0x0, symName: __ZNSt6vectorIN7atcoder13static_modintILi167772161ELPv0EEESaIS3_EE6resizeEm, symObjAddr: 0xB2A4, symBinAddr: 0x10000C3B0, symSize: 0xB0 }
  - { offsetInCU: 0x4B017, offset: 0x4B017, size: 0x8, addend: 0x0, symName: __ZN7atcoder8internal9butterflyINS_13static_modintILi167772161ELPv0EEELS3_0EEEvRSt6vectorIT_SaIS6_EE, symObjAddr: 0xB354, symBinAddr: 0x10000C460, symSize: 0x674 }
  - { offsetInCU: 0x4B047, offset: 0x4B047, size: 0x8, addend: 0x0, symName: __ZSt22__uninitialized_copy_aIN9__gnu_cxx17__normal_iteratorIPKN7atcoder13static_modintILi167772161ELPv0EEESt6vectorIS5_SaIS5_EEEEPS5_S5_ET0_T_SE_SD_RSaIT1_E, symObjAddr: 0xB248, symBinAddr: 0x10000C354, symSize: 0x5C }
  - { offsetInCU: 0x4B04F, offset: 0x4B04F, size: 0x8, addend: 0x0, symName: __ZNSt6vectorIN7atcoder13static_modintILi167772161ELPv0EEESaIS3_EE6resizeEm, symObjAddr: 0xB2A4, symBinAddr: 0x10000C3B0, symSize: 0xB0 }
  - { offsetInCU: 0x4B0BB, offset: 0x4B0BB, size: 0x8, addend: 0x0, symName: __ZNKSt6vectorIN7atcoder13static_modintILi167772161ELPv0EEESaIS3_EE3endEv, symObjAddr: 0xB220, symBinAddr: 0x10000C32C, symSize: 0x28 }
  - { offsetInCU: 0x4B0C3, offset: 0x4B0C3, size: 0x8, addend: 0x0, symName: __ZSt22__uninitialized_copy_aIN9__gnu_cxx17__normal_iteratorIPKN7atcoder13static_modintILi167772161ELPv0EEESt6vectorIS5_SaIS5_EEEEPS5_S5_ET0_T_SE_SD_RSaIT1_E, symObjAddr: 0xB248, symBinAddr: 0x10000C354, symSize: 0x5C }
  - { offsetInCU: 0x4B0E6, offset: 0x4B0E6, size: 0x8, addend: 0x0, symName: __ZNKSt6vectorIN7atcoder13static_modintILi167772161ELPv0EEESaIS3_EE5beginEv, symObjAddr: 0xB1FC, symBinAddr: 0x10000C308, symSize: 0x24 }
  - { offsetInCU: 0x4B0EE, offset: 0x4B0EE, size: 0x8, addend: 0x0, symName: __ZNKSt6vectorIN7atcoder13static_modintILi167772161ELPv0EEESaIS3_EE3endEv, symObjAddr: 0xB220, symBinAddr: 0x10000C32C, symSize: 0x28 }
  - { offsetInCU: 0x4B126, offset: 0x4B126, size: 0x8, addend: 0x0, symName: __ZNKSt12_Vector_baseIN7atcoder13static_modintILi167772161ELPv0EEESaIS3_EE19_M_get_Tp_allocatorEv, symObjAddr: 0xB1E8, symBinAddr: 0x10000C2F4, symSize: 0x14 }
  - { offsetInCU: 0x4B12E, offset: 0x4B12E, size: 0x8, addend: 0x0, symName: __ZNKSt6vectorIN7atcoder13static_modintILi167772161ELPv0EEESaIS3_EE5beginEv, symObjAddr: 0xB1FC, symBinAddr: 0x10000C308, symSize: 0x24 }
  - { offsetInCU: 0x4B1D3, offset: 0x4B1D3, size: 0x8, addend: 0x0, symName: __ZNSt12_Vector_baseIN7atcoder13static_modintILi167772161ELPv0EEESaIS3_EE12_Vector_implC1EOS6_, symObjAddr: 0xB17C, symBinAddr: 0x10000C288, symSize: 0x6C }
  - { offsetInCU: 0x4B1DB, offset: 0x4B1DB, size: 0x8, addend: 0x0, symName: __ZNKSt12_Vector_baseIN7atcoder13static_modintILi167772161ELPv0EEESaIS3_EE19_M_get_Tp_allocatorEv, symObjAddr: 0xB1E8, symBinAddr: 0x10000C2F4, symSize: 0x14 }
  - { offsetInCU: 0x4B200, offset: 0x4B200, size: 0x8, addend: 0x0, symName: __ZN7atcoder13static_modintILi167772161ELPv0EEpLERKS2_, symObjAddr: 0xB0FC, symBinAddr: 0x10000C208, symSize: 0x80 }
  - { offsetInCU: 0x4B208, offset: 0x4B208, size: 0x8, addend: 0x0, symName: __ZNSt12_Vector_baseIN7atcoder13static_modintILi167772161ELPv0EEESaIS3_EE12_Vector_implC1EOS6_, symObjAddr: 0xB17C, symBinAddr: 0x10000C288, symSize: 0x6C }
  - { offsetInCU: 0x4B237, offset: 0x4B237, size: 0x8, addend: 0x0, symName: __ZN7atcodermlERKNS_13static_modintILi167772161ELPv0EEES4_, symObjAddr: 0xB0C8, symBinAddr: 0x10000C1D4, symSize: 0x34 }
  - { offsetInCU: 0x4B23F, offset: 0x4B23F, size: 0x8, addend: 0x0, symName: __ZN7atcoder13static_modintILi167772161ELPv0EEpLERKS2_, symObjAddr: 0xB0FC, symBinAddr: 0x10000C208, symSize: 0x80 }
  - { offsetInCU: 0x4B274, offset: 0x4B274, size: 0x8, addend: 0x0, symName: __ZNKSt6vectorIN7atcoder13static_modintILi167772161ELPv0EEESaIS3_EEixEm, symObjAddr: 0xB0A0, symBinAddr: 0x10000C1AC, symSize: 0x28 }
  - { offsetInCU: 0x4B27C, offset: 0x4B27C, size: 0x8, addend: 0x0, symName: __ZN7atcodermlERKNS_13static_modintILi167772161ELPv0EEES4_, symObjAddr: 0xB0C8, symBinAddr: 0x10000C1D4, symSize: 0x34 }
  - { offsetInCU: 0x4B327, offset: 0x4B327, size: 0x8, addend: 0x0, symName: __ZNSt12_Vector_baseIN7atcoder13static_modintILi167772161ELPv0EEESaIS3_EE17_Vector_impl_dataC2Ev, symObjAddr: 0xB074, symBinAddr: 0x10000C180, symSize: 0x2C }
  - { offsetInCU: 0x4B32F, offset: 0x4B32F, size: 0x8, addend: 0x0, symName: __ZNKSt6vectorIN7atcoder13static_modintILi167772161ELPv0EEESaIS3_EEixEm, symObjAddr: 0xB0A0, symBinAddr: 0x10000C1AC, symSize: 0x28 }
  - { offsetInCU: 0x4B2ED, offset: 0x4B2ED, size: 0x8, addend: 0x0, symName: __ZSt8_DestroyIPN7atcoder13static_modintILi167772161ELPv0EEEEvT_S5_, symObjAddr: 0xB02C, symBinAddr: 0x10000C138, symSize: 0x48 }
  - { offsetInCU: 0x4B2F5, offset: 0x4B2F5, size: 0x8, addend: 0x0, symName: __ZNSt12_Vector_baseIN7atcoder13static_modintILi167772161ELPv0EEESaIS3_EE17_Vector_impl_dataC2Ev, symObjAddr: 0xB074, symBinAddr: 0x10000C180, symSize: 0x2C }
  - { offsetInCU: 0x4B32F, offset: 0x4B32F, size: 0x8, addend: 0x0, symName: __ZSt27__uninitialized_default_n_aIPN7atcoder13static_modintILi167772161ELPv0EEEmS3_ET_S5_T0_RSaIT1_E, symObjAddr: 0xB004, symBinAddr: 0x10000C110, symSize: 0x28 }
  - { offsetInCU: 0x4B337, offset: 0x4B337, size: 0x8, addend: 0x0, symName: __ZSt8_DestroyIPN7atcoder13static_modintILi167772161ELPv0EEEEvT_S5_, symObjAddr: 0xB02C, symBinAddr: 0x10000C138, symSize: 0x48 }
  - { offsetInCU: 0x4B392, offset: 0x4B392, size: 0x8, addend: 0x0, symName: __ZNSt12_Vector_baseIN7atcoder13static_modintILi167772161ELPv0EEESaIS3_EE13_M_deallocateEPS3_m, symObjAddr: 0xAF74, symBinAddr: 0x10000C080, symSize: 0x90 }
  - { offsetInCU: 0x4B39A, offset: 0x4B39A, size: 0x8, addend: 0x0, symName: __ZSt27__uninitialized_default_n_aIPN7atcoder13static_modintILi167772161ELPv0EEEmS3_ET_S5_T0_RSaIT1_E, symObjAddr: 0xB004, symBinAddr: 0x10000C110, symSize: 0x28 }
  - { offsetInCU: 0x4B44C, offset: 0x4B44C, size: 0x8, addend: 0x0, symName: __ZNSt12_Vector_baseIN7atcoder13static_modintILi167772161ELPv0EEESaIS3_EE17_M_create_storageEm, symObjAddr: 0xAF14, symBinAddr: 0x10000C020, symSize: 0x60 }
  - { offsetInCU: 0x4B454, offset: 0x4B454, size: 0x8, addend: 0x0, symName: __ZNSt12_Vector_baseIN7atcoder13static_modintILi167772161ELPv0EEESaIS3_EE13_M_deallocateEPS3_m, symObjAddr: 0xAF74, symBinAddr: 0x10000C080, symSize: 0x90 }
  - { offsetInCU: 0x4B50B, offset: 0x4B50B, size: 0x8, addend: 0x0, symName: __ZNSt12_Vector_baseIN7atcoder13static_modintILi167772161ELPv0EEESaIS3_EE12_Vector_implC1ERKS4_, symObjAddr: 0xAEC8, symBinAddr: 0x10000BFD4, symSize: 0x4C }
  - { offsetInCU: 0x4B513, offset: 0x4B513, size: 0x8, addend: 0x0, symName: __ZNSt12_Vector_baseIN7atcoder13static_modintILi167772161ELPv0EEESaIS3_EE17_M_create_storageEm, symObjAddr: 0xAF14, symBinAddr: 0x10000C020, symSize: 0x60 }
  - { offsetInCU: 0x4B557, offset: 0x4B557, size: 0x8, addend: 0x0, symName: __ZNSt6vectorIN7atcoder13static_modintILi167772161ELPv0EEESaIS3_EE11_S_max_sizeERKS4_, symObjAddr: 0xAE8C, symBinAddr: 0x10000BF98, symSize: 0x3C }
  - { offsetInCU: 0x4B55F, offset: 0x4B55F, size: 0x8, addend: 0x0, symName: __ZNSt12_Vector_baseIN7atcoder13static_modintILi167772161ELPv0EEESaIS3_EE12_Vector_implC1ERKS4_, symObjAddr: 0xAEC8, symBinAddr: 0x10000BFD4, symSize: 0x4C }
  - { offsetInCU: 0x4B5E1, offset: 0x4B5E1, size: 0x8, addend: 0x0, symName: __ZNK7atcoder13static_modintILi754974721ELPv0EE3invEv, symObjAddr: 0xAE1C, symBinAddr: 0x10000BF28, symSize: 0x70 }
  - { offsetInCU: 0x4B5E9, offset: 0x4B5E9, size: 0x8, addend: 0x0, symName: __ZNSt6vectorIN7atcoder13static_modintILi167772161ELPv0EEESaIS3_EE11_S_max_sizeERKS4_, symObjAddr: 0xAE8C, symBinAddr: 0x10000BF98, symSize: 0x3C }
  - { offsetInCU: 0x4B6AA, offset: 0x4B6AA, size: 0x8, addend: 0x0, symName: __ZN7atcoder13static_modintILi754974721ELPv0EEC1IiLS1_0EEET_, symObjAddr: 0xADAC, symBinAddr: 0x10000BEB8, symSize: 0x70 }
  - { offsetInCU: 0x4B6B2, offset: 0x4B6B2, size: 0x8, addend: 0x0, symName: __ZNK7atcoder13static_modintILi754974721ELPv0EE3invEv, symObjAddr: 0xAE1C, symBinAddr: 0x10000BF28, symSize: 0x70 }
  - { offsetInCU: 0x4B6D3, offset: 0x4B6D3, size: 0x8, addend: 0x0, symName: __ZN7atcoder8internal13butterfly_invINS_13static_modintILi754974721ELPv0EEELS3_0EEEvRSt6vectorIT_SaIS6_EE, symObjAddr: 0xA6FC, symBinAddr: 0x10000B808, symSize: 0x6B0 }
  - { offsetInCU: 0x4B6DB, offset: 0x4B6DB, size: 0x8, addend: 0x0, symName: __ZN7atcoder13static_modintILi754974721ELPv0EEC1IiLS1_0EEET_, symObjAddr: 0xADAC, symBinAddr: 0x10000BEB8, symSize: 0x70 }
  - { offsetInCU: 0x4B7A0, offset: 0x4B7A0, size: 0x8, addend: 0x0, symName: __ZZN7atcoder8internal13butterfly_invINS_13static_modintILi754974721ELPv0EEELS3_0EEEvRSt6vectorIT_SaIS6_EEE4info, symObjAddr: 0x16A28, symBinAddr: 0x100028238, symSize: 0x0 }
  - { offsetInCU: 0x4B95F, offset: 0x4B95F, size: 0x8, addend: 0x0, symName: __ZN7atcoder13static_modintILi754974721ELPv0EEmLERKS2_, symObjAddr: 0xA694, symBinAddr: 0x10000B7A0, symSize: 0x68 }
  - { offsetInCU: 0x4B967, offset: 0x4B967, size: 0x8, addend: 0x0, symName: __ZN7atcoder8internal13butterfly_invINS_13static_modintILi754974721ELPv0EEELS3_0EEEvRSt6vectorIT_SaIS6_EE, symObjAddr: 0xA6FC, symBinAddr: 0x10000B808, symSize: 0x6B0 }
  - { offsetInCU: 0x4B9A6, offset: 0x4B9A6, size: 0x8, addend: 0x0, symName: __ZN7atcoder8internal9butterflyINS_13static_modintILi754974721ELPv0EEELS3_0EEEvRSt6vectorIT_SaIS6_EE, symObjAddr: 0xA020, symBinAddr: 0x10000B12C, symSize: 0x674 }
  - { offsetInCU: 0x4B9AE, offset: 0x4B9AE, size: 0x8, addend: 0x0, symName: __ZN7atcoder13static_modintILi754974721ELPv0EEmLERKS2_, symObjAddr: 0xA694, symBinAddr: 0x10000B7A0, symSize: 0x68 }
  - { offsetInCU: 0x4BA6E, offset: 0x4BA6E, size: 0x8, addend: 0x0, symName: __ZZN7atcoder8internal9butterflyINS_13static_modintILi754974721ELPv0EEELS3_0EEEvRSt6vectorIT_SaIS6_EEE4info, symObjAddr: 0x167F0, symBinAddr: 0x100028000, symSize: 0x0 }
  - { offsetInCU: 0x4BC54, offset: 0x4BC54, size: 0x8, addend: 0x0, symName: __ZNSt6vectorIN7atcoder13static_modintILi754974721ELPv0EEESaIS3_EE6resizeEm, symObjAddr: 0x9F70, symBinAddr: 0x10000B07C, symSize: 0xB0 }
  - { offsetInCU: 0x4BC5C, offset: 0x4BC5C, size: 0x8, addend: 0x0, symName: __ZN7atcoder8internal9butterflyINS_13static_modintILi754974721ELPv0EEELS3_0EEEvRSt6vectorIT_SaIS6_EE, symObjAddr: 0xA020, symBinAddr: 0x10000B12C, symSize: 0x674 }
  - { offsetInCU: 0x4BC8C, offset: 0x4BC8C, size: 0x8, addend: 0x0, symName: __ZSt22__uninitialized_copy_aIN9__gnu_cxx17__normal_iteratorIPKN7atcoder13static_modintILi754974721ELPv0EEESt6vectorIS5_SaIS5_EEEEPS5_S5_ET0_T_SE_SD_RSaIT1_E, symObjAddr: 0x9F14, symBinAddr: 0x10000B020, symSize: 0x5C }
  - { offsetInCU: 0x4BC94, offset: 0x4BC94, size: 0x8, addend: 0x0, symName: __ZNSt6vectorIN7atcoder13static_modintILi754974721ELPv0EEESaIS3_EE6resizeEm, symObjAddr: 0x9F70, symBinAddr: 0x10000B07C, symSize: 0xB0 }
  - { offsetInCU: 0x4BD00, offset: 0x4BD00, size: 0x8, addend: 0x0, symName: __ZNKSt6vectorIN7atcoder13static_modintILi754974721ELPv0EEESaIS3_EE3endEv, symObjAddr: 0x9EEC, symBinAddr: 0x10000AFF8, symSize: 0x28 }
  - { offsetInCU: 0x4BD08, offset: 0x4BD08, size: 0x8, addend: 0x0, symName: __ZSt22__uninitialized_copy_aIN9__gnu_cxx17__normal_iteratorIPKN7atcoder13static_modintILi754974721ELPv0EEESt6vectorIS5_SaIS5_EEEEPS5_S5_ET0_T_SE_SD_RSaIT1_E, symObjAddr: 0x9F14, symBinAddr: 0x10000B020, symSize: 0x5C }
  - { offsetInCU: 0x4BD2B, offset: 0x4BD2B, size: 0x8, addend: 0x0, symName: __ZNKSt6vectorIN7atcoder13static_modintILi754974721ELPv0EEESaIS3_EE5beginEv, symObjAddr: 0x9EC8, symBinAddr: 0x10000AFD4, symSize: 0x24 }
  - { offsetInCU: 0x4BD33, offset: 0x4BD33, size: 0x8, addend: 0x0, symName: __ZNKSt6vectorIN7atcoder13static_modintILi754974721ELPv0EEESaIS3_EE3endEv, symObjAddr: 0x9EEC, symBinAddr: 0x10000AFF8, symSize: 0x28 }
  - { offsetInCU: 0x4BD6B, offset: 0x4BD6B, size: 0x8, addend: 0x0, symName: __ZNKSt12_Vector_baseIN7atcoder13static_modintILi754974721ELPv0EEESaIS3_EE19_M_get_Tp_allocatorEv, symObjAddr: 0x9EB4, symBinAddr: 0x10000AFC0, symSize: 0x14 }
  - { offsetInCU: 0x4BD73, offset: 0x4BD73, size: 0x8, addend: 0x0, symName: __ZNKSt6vectorIN7atcoder13static_modintILi754974721ELPv0EEESaIS3_EE5beginEv, symObjAddr: 0x9EC8, symBinAddr: 0x10000AFD4, symSize: 0x24 }
  - { offsetInCU: 0x4BE18, offset: 0x4BE18, size: 0x8, addend: 0x0, symName: __ZNSt12_Vector_baseIN7atcoder13static_modintILi754974721ELPv0EEESaIS3_EE12_Vector_implC1EOS6_, symObjAddr: 0x9E48, symBinAddr: 0x10000AF54, symSize: 0x6C }
  - { offsetInCU: 0x4BE20, offset: 0x4BE20, size: 0x8, addend: 0x0, symName: __ZNKSt12_Vector_baseIN7atcoder13static_modintILi754974721ELPv0EEESaIS3_EE19_M_get_Tp_allocatorEv, symObjAddr: 0x9EB4, symBinAddr: 0x10000AFC0, symSize: 0x14 }
  - { offsetInCU: 0x4BE45, offset: 0x4BE45, size: 0x8, addend: 0x0, symName: __ZN7atcoder13static_modintILi754974721ELPv0EEpLERKS2_, symObjAddr: 0x9DC8, symBinAddr: 0x10000AED4, symSize: 0x80 }
  - { offsetInCU: 0x4BE4D, offset: 0x4BE4D, size: 0x8, addend: 0x0, symName: __ZNSt12_Vector_baseIN7atcoder13static_modintILi754974721ELPv0EEESaIS3_EE12_Vector_implC1EOS6_, symObjAddr: 0x9E48, symBinAddr: 0x10000AF54, symSize: 0x6C }
  - { offsetInCU: 0x4BE7C, offset: 0x4BE7C, size: 0x8, addend: 0x0, symName: __ZN7atcodermlERKNS_13static_modintILi754974721ELPv0EEES4_, symObjAddr: 0x9D94, symBinAddr: 0x10000AEA0, symSize: 0x34 }
  - { offsetInCU: 0x4BE84, offset: 0x4BE84, size: 0x8, addend: 0x0, symName: __ZN7atcoder13static_modintILi754974721ELPv0EEpLERKS2_, symObjAddr: 0x9DC8, symBinAddr: 0x10000AED4, symSize: 0x80 }
  - { offsetInCU: 0x4BEB9, offset: 0x4BEB9, size: 0x8, addend: 0x0, symName: __ZNKSt6vectorIN7atcoder13static_modintILi754974721ELPv0EEESaIS3_EEixEm, symObjAddr: 0x9D6C, symBinAddr: 0x10000AE78, symSize: 0x28 }
  - { offsetInCU: 0x4BEC1, offset: 0x4BEC1, size: 0x8, addend: 0x0, symName: __ZN7atcodermlERKNS_13static_modintILi754974721ELPv0EEES4_, symObjAddr: 0x9D94, symBinAddr: 0x10000AEA0, symSize: 0x34 }
  - { offsetInCU: 0x4BF6C, offset: 0x4BF6C, size: 0x8, addend: 0x0, symName: __ZNSt12_Vector_baseIN7atcoder13static_modintILi754974721ELPv0EEESaIS3_EE17_Vector_impl_dataC2Ev, symObjAddr: 0x9D40, symBinAddr: 0x10000AE4C, symSize: 0x2C }
  - { offsetInCU: 0x4BF74, offset: 0x4BF74, size: 0x8, addend: 0x0, symName: __ZNKSt6vectorIN7atcoder13static_modintILi754974721ELPv0EEESaIS3_EEixEm, symObjAddr: 0x9D6C, symBinAddr: 0x10000AE78, symSize: 0x28 }
  - { offsetInCU: 0x4BF32, offset: 0x4BF32, size: 0x8, addend: 0x0, symName: __ZSt8_DestroyIPN7atcoder13static_modintILi754974721ELPv0EEEEvT_S5_, symObjAddr: 0x9CF8, symBinAddr: 0x10000AE04, symSize: 0x48 }
  - { offsetInCU: 0x4BF3A, offset: 0x4BF3A, size: 0x8, addend: 0x0, symName: __ZNSt12_Vector_baseIN7atcoder13static_modintILi754974721ELPv0EEESaIS3_EE17_Vector_impl_dataC2Ev, symObjAddr: 0x9D40, symBinAddr: 0x10000AE4C, symSize: 0x2C }
  - { offsetInCU: 0x4BF74, offset: 0x4BF74, size: 0x8, addend: 0x0, symName: __ZSt27__uninitialized_default_n_aIPN7atcoder13static_modintILi754974721ELPv0EEEmS3_ET_S5_T0_RSaIT1_E, symObjAddr: 0x9CD0, symBinAddr: 0x10000ADDC, symSize: 0x28 }
  - { offsetInCU: 0x4BF7C, offset: 0x4BF7C, size: 0x8, addend: 0x0, symName: __ZSt8_DestroyIPN7atcoder13static_modintILi754974721ELPv0EEEEvT_S5_, symObjAddr: 0x9CF8, symBinAddr: 0x10000AE04, symSize: 0x48 }
  - { offsetInCU: 0x4BFD7, offset: 0x4BFD7, size: 0x8, addend: 0x0, symName: __ZNSt12_Vector_baseIN7atcoder13static_modintILi754974721ELPv0EEESaIS3_EE13_M_deallocateEPS3_m, symObjAddr: 0x9C40, symBinAddr: 0x10000AD4C, symSize: 0x90 }
  - { offsetInCU: 0x4BFDF, offset: 0x4BFDF, size: 0x8, addend: 0x0, symName: __ZSt27__uninitialized_default_n_aIPN7atcoder13static_modintILi754974721ELPv0EEEmS3_ET_S5_T0_RSaIT1_E, symObjAddr: 0x9CD0, symBinAddr: 0x10000ADDC, symSize: 0x28 }
  - { offsetInCU: 0x4C091, offset: 0x4C091, size: 0x8, addend: 0x0, symName: __ZNSt12_Vector_baseIN7atcoder13static_modintILi754974721ELPv0EEESaIS3_EE17_M_create_storageEm, symObjAddr: 0x9BE0, symBinAddr: 0x10000ACEC, symSize: 0x60 }
  - { offsetInCU: 0x4C099, offset: 0x4C099, size: 0x8, addend: 0x0, symName: __ZNSt12_Vector_baseIN7atcoder13static_modintILi754974721ELPv0EEESaIS3_EE13_M_deallocateEPS3_m, symObjAddr: 0x9C40, symBinAddr: 0x10000AD4C, symSize: 0x90 }
  - { offsetInCU: 0x4C150, offset: 0x4C150, size: 0x8, addend: 0x0, symName: __ZNSt12_Vector_baseIN7atcoder13static_modintILi754974721ELPv0EEESaIS3_EE12_Vector_implC1ERKS4_, symObjAddr: 0x9B94, symBinAddr: 0x10000ACA0, symSize: 0x4C }
  - { offsetInCU: 0x4C158, offset: 0x4C158, size: 0x8, addend: 0x0, symName: __ZNSt12_Vector_baseIN7atcoder13static_modintILi754974721ELPv0EEESaIS3_EE17_M_create_storageEm, symObjAddr: 0x9BE0, symBinAddr: 0x10000ACEC, symSize: 0x60 }
  - { offsetInCU: 0x4C19C, offset: 0x4C19C, size: 0x8, addend: 0x0, symName: __ZNSt6vectorIN7atcoder13static_modintILi754974721ELPv0EEESaIS3_EE11_S_max_sizeERKS4_, symObjAddr: 0x9B58, symBinAddr: 0x10000AC64, symSize: 0x3C }
  - { offsetInCU: 0x4C1A4, offset: 0x4C1A4, size: 0x8, addend: 0x0, symName: __ZNSt12_Vector_baseIN7atcoder13static_modintILi754974721ELPv0EEESaIS3_EE12_Vector_implC1ERKS4_, symObjAddr: 0x9B94, symBinAddr: 0x10000ACA0, symSize: 0x4C }
  - { offsetInCU: 0x4C222, offset: 0x4C222, size: 0x8, addend: 0x0, symName: __ZNSt12_Destroy_auxILb1EE9__destroyIPxEEvT_S3_, symObjAddr: 0x9B40, symBinAddr: 0x10000AC4C, symSize: 0x18 }
  - { offsetInCU: 0x4C22A, offset: 0x4C22A, size: 0x8, addend: 0x0, symName: __ZNSt6vectorIN7atcoder13static_modintILi754974721ELPv0EEESaIS3_EE11_S_max_sizeERKS4_, symObjAddr: 0x9B58, symBinAddr: 0x10000AC64, symSize: 0x3C }
  - { offsetInCU: 0x4C256, offset: 0x4C256, size: 0x8, addend: 0x0, symName: __ZNSt12_Destroy_auxILb0EE9__destroyIPxEEvT_S3_, symObjAddr: 0x9AF4, symBinAddr: 0x10000AC00, symSize: 0x4C }
  - { offsetInCU: 0x4C25E, offset: 0x4C25E, size: 0x8, addend: 0x0, symName: __ZNSt12_Destroy_auxILb1EE9__destroyIPxEEvT_S3_, symObjAddr: 0x9B40, symBinAddr: 0x10000AC4C, symSize: 0x18 }
  - { offsetInCU: 0x4C2FA, offset: 0x4C2FA, size: 0x8, addend: 0x0, symName: __ZSt13__countl_zeroImEiT_, symObjAddr: 0x9AA0, symBinAddr: 0x10000ABAC, symSize: 0x54 }
  - { offsetInCU: 0x4C302, offset: 0x4C302, size: 0x8, addend: 0x0, symName: __ZNSt12_Destroy_auxILb0EE9__destroyIPxEEvT_S3_, symObjAddr: 0x9AF4, symBinAddr: 0x10000AC00, symSize: 0x4C }
  - { offsetInCU: 0x4C38F, offset: 0x4C38F, size: 0x8, addend: 0x0, symName: __ZSt13__countl_zeroIjEiT_, symObjAddr: 0x9A4C, symBinAddr: 0x10000AB58, symSize: 0x54 }
  - { offsetInCU: 0x4C397, offset: 0x4C397, size: 0x8, addend: 0x0, symName: __ZSt13__countl_zeroImEiT_, symObjAddr: 0x9AA0, symBinAddr: 0x10000ABAC, symSize: 0x54 }
  - { offsetInCU: 0x4C428, offset: 0x4C428, size: 0x8, addend: 0x0, symName: __ZNSt5dequeISt4pairIN7atcoder13static_modintILi998244353ELPv0EEES4_ESaIS5_EE4backEv, symObjAddr: 0x9A18, symBinAddr: 0x10000AB24, symSize: 0x34 }
  - { offsetInCU: 0x4C430, offset: 0x4C430, size: 0x8, addend: 0x0, symName: __ZSt13__countl_zeroIjEiT_, symObjAddr: 0x9A4C, symBinAddr: 0x10000AB58, symSize: 0x54 }
  - { offsetInCU: 0x4C464, offset: 0x4C464, size: 0x8, addend: 0x0, symName: __ZNSt6vectorISt4pairIN7atcoder13static_modintILi998244353ELPv0EEES4_ESaIS5_EE12emplace_backIJS5_EEERS5_DpOT_, symObjAddr: 0x9964, symBinAddr: 0x10000AA70, symSize: 0xB4 }
  - { offsetInCU: 0x4C46C, offset: 0x4C46C, size: 0x8, addend: 0x0, symName: __ZNSt5dequeISt4pairIN7atcoder13static_modintILi998244353ELPv0EEES4_ESaIS5_EE4backEv, symObjAddr: 0x9A18, symBinAddr: 0x10000AB24, symSize: 0x34 }
  - { offsetInCU: 0x4C4DE, offset: 0x4C4DE, size: 0x8, addend: 0x0, symName: __ZNSt5stackISt4pairIN7atcoder13static_modintILi998244353ELPv0EEES4_ESt5dequeIS5_SaIS5_EEE3popEv, symObjAddr: 0x9944, symBinAddr: 0x10000AA50, symSize: 0x20 }
  - { offsetInCU: 0x4C4E6, offset: 0x4C4E6, size: 0x8, addend: 0x0, symName: __ZNSt6vectorISt4pairIN7atcoder13static_modintILi998244353ELPv0EEES4_ESaIS5_EE12emplace_backIJS5_EEERS5_DpOT_, symObjAddr: 0x9964, symBinAddr: 0x10000AA70, symSize: 0xB4 }
  - { offsetInCU: 0x4C544, offset: 0x4C544, size: 0x8, addend: 0x0, symName: __ZNSt12_Vector_baseISt4pairIN7atcoder13static_modintILi998244353ELPv0EEES4_ESaIS5_EE19_M_get_Tp_allocatorEv, symObjAddr: 0x9930, symBinAddr: 0x10000AA3C, symSize: 0x14 }
  - { offsetInCU: 0x4C54C, offset: 0x4C54C, size: 0x8, addend: 0x0, symName: __ZNSt5stackISt4pairIN7atcoder13static_modintILi998244353ELPv0EEES4_ESt5dequeIS5_SaIS5_EEE3popEv, symObjAddr: 0x9944, symBinAddr: 0x10000AA50, symSize: 0x20 }
  - { offsetInCU: 0x4C56F, offset: 0x4C56F, size: 0x8, addend: 0x0, symName: __ZNSt12_Vector_baseISt4pairIN7atcoder13static_modintILi998244353ELPv0EEES4_ESaIS5_EE13_M_deallocateEPS5_m, symObjAddr: 0x98A0, symBinAddr: 0x10000A9AC, symSize: 0x90 }
  - { offsetInCU: 0x4C577, offset: 0x4C577, size: 0x8, addend: 0x0, symName: __ZNSt12_Vector_baseISt4pairIN7atcoder13static_modintILi998244353ELPv0EEES4_ESaIS5_EE19_M_get_Tp_allocatorEv, symObjAddr: 0x9930, symBinAddr: 0x10000AA3C, symSize: 0x14 }
  - { offsetInCU: 0x4C629, offset: 0x4C629, size: 0x8, addend: 0x0, symName: __ZNKSt5dequeISt4pairIN7atcoder13static_modintILi998244353ELPv0EEES4_ESaIS5_EE5emptyEv, symObjAddr: 0x986C, symBinAddr: 0x10000A978, symSize: 0x34 }
  - { offsetInCU: 0x4C631, offset: 0x4C631, size: 0x8, addend: 0x0, symName: __ZNSt12_Vector_baseISt4pairIN7atcoder13static_modintILi998244353ELPv0EEES4_ESaIS5_EE13_M_deallocateEPS5_m, symObjAddr: 0x98A0, symBinAddr: 0x10000A9AC, symSize: 0x90 }
  - { offsetInCU: 0x4C654, offset: 0x4C654, size: 0x8, addend: 0x0, symName: __ZNSt5stackISt4pairIN7atcoder13static_modintILi998244353ELPv0EEES4_ESt5dequeIS5_SaIS5_EEE4pushERKS5_, symObjAddr: 0x9844, symBinAddr: 0x10000A950, symSize: 0x28 }
  - { offsetInCU: 0x4C65C, offset: 0x4C65C, size: 0x8, addend: 0x0, symName: __ZNKSt5dequeISt4pairIN7atcoder13static_modintILi998244353ELPv0EEES4_ESaIS5_EE5emptyEv, symObjAddr: 0x986C, symBinAddr: 0x10000A978, symSize: 0x34 }
  - { offsetInCU: 0x4C715, offset: 0x4C715, size: 0x8, addend: 0x0, symName: __ZNSt15_Deque_iteratorISt4pairIN7atcoder13static_modintILi998244353ELPv0EEES4_ERS5_PS5_EC1ERKS8_, symObjAddr: 0x97EC, symBinAddr: 0x10000A8F8, symSize: 0x58 }
  - { offsetInCU: 0x4C71D, offset: 0x4C71D, size: 0x8, addend: 0x0, symName: __ZNSt5stackISt4pairIN7atcoder13static_modintILi998244353ELPv0EEES4_ESt5dequeIS5_SaIS5_EEE4pushERKS5_, symObjAddr: 0x9844, symBinAddr: 0x10000A950, symSize: 0x28 }
  - { offsetInCU: 0x4C6E7, offset: 0x4C6E7, size: 0x8, addend: 0x0, symName: __ZNSt11_Deque_baseISt4pairIN7atcoder13static_modintILi998244353ELPv0EEES4_ESaIS5_EE17_M_deallocate_mapEPPS5_m, symObjAddr: 0x975C, symBinAddr: 0x10000A868, symSize: 0x90 }
  - { offsetInCU: 0x4C6EF, offset: 0x4C6EF, size: 0x8, addend: 0x0, symName: __ZNSt15_Deque_iteratorISt4pairIN7atcoder13static_modintILi998244353ELPv0EEES4_ERS5_PS5_EC1ERKS8_, symObjAddr: 0x97EC, symBinAddr: 0x10000A8F8, symSize: 0x58 }
  - { offsetInCU: 0x4C7D0, offset: 0x4C7D0, size: 0x8, addend: 0x0, symName: __ZNSt11_Deque_baseISt4pairIN7atcoder13static_modintILi998244353ELPv0EEES4_ESaIS5_EE16_M_destroy_nodesEPPS5_S9_, symObjAddr: 0x96FC, symBinAddr: 0x10000A808, symSize: 0x60 }
  - { offsetInCU: 0x4C7D8, offset: 0x4C7D8, size: 0x8, addend: 0x0, symName: __ZNSt11_Deque_baseISt4pairIN7atcoder13static_modintILi998244353ELPv0EEES4_ESaIS5_EE17_M_deallocate_mapEPPS5_m, symObjAddr: 0x975C, symBinAddr: 0x10000A868, symSize: 0x90 }
  - { offsetInCU: 0x4C841, offset: 0x4C841, size: 0x8, addend: 0x0, symName: __ZNSt5dequeISt4pairIN7atcoder13static_modintILi998244353ELPv0EEES4_ESaIS5_EE9push_backEOS5_, symObjAddr: 0x96CC, symBinAddr: 0x10000A7D8, symSize: 0x30 }
  - { offsetInCU: 0x4C849, offset: 0x4C849, size: 0x8, addend: 0x0, symName: __ZNSt11_Deque_baseISt4pairIN7atcoder13static_modintILi998244353ELPv0EEES4_ESaIS5_EE16_M_destroy_nodesEPPS5_S9_, symObjAddr: 0x96FC, symBinAddr: 0x10000A808, symSize: 0x60 }
  - { offsetInCU: 0x4C87F, offset: 0x4C87F, size: 0x8, addend: 0x0, symName: __ZSt4moveIRSt4pairIN7atcoder13static_modintILi998244353ELPv0EEES4_EEONSt16remove_referenceIT_E4typeEOS8_, symObjAddr: 0x96B8, symBinAddr: 0x10000A7C4, symSize: 0x14 }
  - { offsetInCU: 0x4C887, offset: 0x4C887, size: 0x8, addend: 0x0, symName: __ZNSt5dequeISt4pairIN7atcoder13static_modintILi998244353ELPv0EEES4_ESaIS5_EE9push_backEOS5_, symObjAddr: 0x96CC, symBinAddr: 0x10000A7D8, symSize: 0x30 }
  - { offsetInCU: 0x4C924, offset: 0x4C924, size: 0x8, addend: 0x0, symName: __ZNSt11_Deque_baseISt4pairIN7atcoder13static_modintILi998244353ELPv0EEES4_ESaIS5_EEC2Ev, symObjAddr: 0x9670, symBinAddr: 0x10000A77C, symSize: 0x48 }
  - { offsetInCU: 0x4C92C, offset: 0x4C92C, size: 0x8, addend: 0x0, symName: __ZSt4moveIRSt4pairIN7atcoder13static_modintILi998244353ELPv0EEES4_EEONSt16remove_referenceIT_E4typeEOS8_, symObjAddr: 0x96B8, symBinAddr: 0x10000A7C4, symSize: 0x14 }
  - { offsetInCU: 0x4C8F2, offset: 0x4C8F2, size: 0x8, addend: 0x0, symName: __ZNSt13_Bvector_baseISaIbEE8_S_nwordEm, symObjAddr: 0x9654, symBinAddr: 0x10000A760, symSize: 0x1C }
  - { offsetInCU: 0x4C8FA, offset: 0x4C8FA, size: 0x8, addend: 0x0, symName: __ZNSt11_Deque_baseISt4pairIN7atcoder13static_modintILi998244353ELPv0EEES4_ESaIS5_EEC2Ev, symObjAddr: 0x9670, symBinAddr: 0x10000A77C, symSize: 0x48 }
  - { offsetInCU: 0x4C920, offset: 0x4C920, size: 0x8, addend: 0x0, symName: __ZNSt13_Bvector_baseISaIbEE11_M_allocateEm, symObjAddr: 0x9534, symBinAddr: 0x10000A640, symSize: 0x120 }
  - { offsetInCU: 0x4C928, offset: 0x4C928, size: 0x8, addend: 0x0, symName: __ZNSt13_Bvector_baseISaIbEE8_S_nwordEm, symObjAddr: 0x9654, symBinAddr: 0x10000A760, symSize: 0x1C }
  - { offsetInCU: 0x4CA45, offset: 0x4CA45, size: 0x8, addend: 0x0, symName: __ZNSt13_Bvector_baseISaIbEE13_Bvector_implC1ERKSaImE, symObjAddr: 0x94E8, symBinAddr: 0x10000A5F4, symSize: 0x4C }
  - { offsetInCU: 0x4CA4D, offset: 0x4CA4D, size: 0x8, addend: 0x0, symName: __ZNSt13_Bvector_baseISaIbEE11_M_allocateEm, symObjAddr: 0x9534, symBinAddr: 0x10000A640, symSize: 0x120 }
  - { offsetInCU: 0x4CAC1, offset: 0x4CAC1, size: 0x8, addend: 0x0, symName: __ZNSt6vectorIbSaIbEE19_M_initialize_valueEb, symObjAddr: 0x948C, symBinAddr: 0x10000A598, symSize: 0x5C }
  - { offsetInCU: 0x4CAC9, offset: 0x4CAC9, size: 0x8, addend: 0x0, symName: __ZNSt13_Bvector_baseISaIbEE13_Bvector_implC1ERKSaImE, symObjAddr: 0x94E8, symBinAddr: 0x10000A5F4, symSize: 0x4C }
  - { offsetInCU: 0x4CB21, offset: 0x4CB21, size: 0x8, addend: 0x0, symName: __ZNSt13_Bvector_baseISaIbEE18_Bvector_impl_data8_M_resetEv, symObjAddr: 0x9454, symBinAddr: 0x10000A560, symSize: 0x38 }
  - { offsetInCU: 0x4CB29, offset: 0x4CB29, size: 0x8, addend: 0x0, symName: __ZNSt6vectorIbSaIbEE19_M_initialize_valueEb, symObjAddr: 0x948C, symBinAddr: 0x10000A598, symSize: 0x5C }
  - { offsetInCU: 0x4CB48, offset: 0x4CB48, size: 0x8, addend: 0x0, symName: __ZSt13__copy_move_aILb0EN9__gnu_cxx17__normal_iteratorIPiSt6vectorIiSaIiEEEES6_ET1_T0_S8_S7_, symObjAddr: 0x93F4, symBinAddr: 0x10000A500, symSize: 0x60 }
  - { offsetInCU: 0x4CB50, offset: 0x4CB50, size: 0x8, addend: 0x0, symName: __ZNSt13_Bvector_baseISaIbEE18_Bvector_impl_data8_M_resetEv, symObjAddr: 0x9454, symBinAddr: 0x10000A560, symSize: 0x38 }
  - { offsetInCU: 0x4CBB0, offset: 0x4CBB0, size: 0x8, addend: 0x0, symName: __ZSt12__miter_baseIN9__gnu_cxx17__normal_iteratorIPiSt6vectorIiSaIiEEEEET_S7_, symObjAddr: 0x93E0, symBinAddr: 0x10000A4EC, symSize: 0x14 }
  - { offsetInCU: 0x4CBB8, offset: 0x4CBB8, size: 0x8, addend: 0x0, symName: __ZSt13__copy_move_aILb0EN9__gnu_cxx17__normal_iteratorIPiSt6vectorIiSaIiEEEES6_ET1_T0_S8_S7_, symObjAddr: 0x93F4, symBinAddr: 0x10000A500, symSize: 0x60 }
  - { offsetInCU: 0x4CBE3, offset: 0x4CBE3, size: 0x8, addend: 0x0, symName: __ZSt8__fill_aIN9__gnu_cxx17__normal_iteratorIPiSt6vectorIiSaIiEEEEiEvT_S7_RKT0_, symObjAddr: 0x93B0, symBinAddr: 0x10000A4BC, symSize: 0x30 }
  - { offsetInCU: 0x4CBEB, offset: 0x4CBEB, size: 0x8, addend: 0x0, symName: __ZSt12__miter_baseIN9__gnu_cxx17__normal_iteratorIPiSt6vectorIiSaIiEEEEET_S7_, symObjAddr: 0x93E0, symBinAddr: 0x10000A4EC, symSize: 0x14 }
  - { offsetInCU: 0x4CC45, offset: 0x4CC45, size: 0x8, addend: 0x0, symName: __ZNSt6vectorIiSaIiEE19_M_range_initializeIPKiEEvT_S5_St20forward_iterator_tag, symObjAddr: 0x92CC, symBinAddr: 0x10000A3D8, symSize: 0xE4 }
  - { offsetInCU: 0x4CC4D, offset: 0x4CC4D, size: 0x8, addend: 0x0, symName: __ZSt8__fill_aIN9__gnu_cxx17__normal_iteratorIPiSt6vectorIiSaIiEEEEiEvT_S7_RKT0_, symObjAddr: 0x93B0, symBinAddr: 0x10000A4BC, symSize: 0x30 }
  - { offsetInCU: 0x4CD64, offset: 0x4CD64, size: 0x8, addend: 0x0, symName: __ZNKSt16initializer_listIiE3endEv, symObjAddr: 0x9294, symBinAddr: 0x10000A3A0, symSize: 0x38 }
  - { offsetInCU: 0x4CD6C, offset: 0x4CD6C, size: 0x8, addend: 0x0, symName: __ZNSt6vectorIiSaIiEE19_M_range_initializeIPKiEEvT_S5_St20forward_iterator_tag, symObjAddr: 0x92CC, symBinAddr: 0x10000A3D8, symSize: 0xE4 }
  - { offsetInCU: 0x4CD8F, offset: 0x4CD8F, size: 0x8, addend: 0x0, symName: __ZNKSt16initializer_listIiE5beginEv, symObjAddr: 0x927C, symBinAddr: 0x10000A388, symSize: 0x18 }
  - { offsetInCU: 0x4CD97, offset: 0x4CD97, size: 0x8, addend: 0x0, symName: __ZNKSt16initializer_listIiE3endEv, symObjAddr: 0x9294, symBinAddr: 0x10000A3A0, symSize: 0x38 }
  - { offsetInCU: 0x4CE03, offset: 0x4CE03, size: 0x8, addend: 0x0, symName: __ZNSt12_Vector_baseIiSaIiEEC2ERKS0_, symObjAddr: 0x9254, symBinAddr: 0x10000A360, symSize: 0x28 }
  - { offsetInCU: 0x4CE0B, offset: 0x4CE0B, size: 0x8, addend: 0x0, symName: __ZNKSt16initializer_listIiE5beginEv, symObjAddr: 0x927C, symBinAddr: 0x10000A388, symSize: 0x18 }
  - { offsetInCU: 0x4CE34, offset: 0x4CE34, size: 0x8, addend: 0x0, symName: __ZNSt12_Vector_baseIiSaIiEE17_Vector_impl_data12_M_swap_dataERS2_, symObjAddr: 0x9204, symBinAddr: 0x10000A310, symSize: 0x50 }
  - { offsetInCU: 0x4CE3C, offset: 0x4CE3C, size: 0x8, addend: 0x0, symName: __ZNSt12_Vector_baseIiSaIiEEC2ERKS0_, symObjAddr: 0x9254, symBinAddr: 0x10000A360, symSize: 0x28 }
  - { offsetInCU: 0x4CE8D, offset: 0x4CE8D, size: 0x8, addend: 0x0, symName: __ZSt22__final_insertion_sortIN9__gnu_cxx17__normal_iteratorIPiSt6vectorIiSaIiEEEENS0_5__ops15_Iter_comp_iterIZN7atcoder8internal11sa_doublingERKS5_EUliiE_EEEvT_SF_T0_, symObjAddr: 0x9110, symBinAddr: 0x10000A21C, symSize: 0xF4 }
  - { offsetInCU: 0x4CE95, offset: 0x4CE95, size: 0x8, addend: 0x0, symName: __ZNSt12_Vector_baseIiSaIiEE17_Vector_impl_data12_M_swap_dataERS2_, symObjAddr: 0x9204, symBinAddr: 0x10000A310, symSize: 0x50 }
  - { offsetInCU: 0x4CEEB, offset: 0x4CEEB, size: 0x8, addend: 0x0, symName: __ZSt16__introsort_loopIN9__gnu_cxx17__normal_iteratorIPiSt6vectorIiSaIiEEEElNS0_5__ops15_Iter_comp_iterIZN7atcoder8internal11sa_doublingERKS5_EUliiE_EEEvT_SF_T0_T1_, symObjAddr: 0x900C, symBinAddr: 0x10000A118, symSize: 0x104 }
  - { offsetInCU: 0x4CEF3, offset: 0x4CEF3, size: 0x8, addend: 0x0, symName: __ZSt22__final_insertion_sortIN9__gnu_cxx17__normal_iteratorIPiSt6vectorIiSaIiEEEENS0_5__ops15_Iter_comp_iterIZN7atcoder8internal11sa_doublingERKS5_EUliiE_EEEvT_SF_T0_, symObjAddr: 0x9110, symBinAddr: 0x10000A21C, symSize: 0xF4 }
  - { offsetInCU: 0x4CFB0, offset: 0x4CFB0, size: 0x8, addend: 0x0, symName: __ZN9__gnu_cxx5__ops15_Iter_comp_iterIZN7atcoder8internal11sa_doublingERKSt6vectorIiSaIiEEEUliiE_EC1ES9_, symObjAddr: 0x8FC0, symBinAddr: 0x10000A0CC, symSize: 0x4C }
  - { offsetInCU: 0x4CFB8, offset: 0x4CFB8, size: 0x8, addend: 0x0, symName: __ZSt16__introsort_loopIN9__gnu_cxx17__normal_iteratorIPiSt6vectorIiSaIiEEEElNS0_5__ops15_Iter_comp_iterIZN7atcoder8internal11sa_doublingERKS5_EUliiE_EEEvT_SF_T0_T1_, symObjAddr: 0x900C, symBinAddr: 0x10000A118, symSize: 0x104 }
  - { offsetInCU: 0x4CFE0, offset: 0x4CFE0, size: 0x8, addend: 0x0, symName: __ZSt4moveIRZN7atcoder8internal11sa_doublingERKSt6vectorIiSaIiEEEUliiE_EONSt16remove_referenceIT_E4typeEOSA_, symObjAddr: 0x8FAC, symBinAddr: 0x10000A0B8, symSize: 0x14 }
  - { offsetInCU: 0x4CFE8, offset: 0x4CFE8, size: 0x8, addend: 0x0, symName: __ZN9__gnu_cxx5__ops15_Iter_comp_iterIZN7atcoder8internal11sa_doublingERKSt6vectorIiSaIiEEEUliiE_EC1ES9_, symObjAddr: 0x8FC0, symBinAddr: 0x10000A0CC, symSize: 0x4C }
  - { offsetInCU: 0x4D012, offset: 0x4D012, size: 0x8, addend: 0x0, symName: __ZSt18uninitialized_copyIN9__gnu_cxx17__normal_iteratorIPKiSt6vectorIiSaIiEEEEPiET0_T_SA_S9_, symObjAddr: 0x8F70, symBinAddr: 0x10000A07C, symSize: 0x3C }
  - { offsetInCU: 0x4D01A, offset: 0x4D01A, size: 0x8, addend: 0x0, symName: __ZSt4moveIRZN7atcoder8internal11sa_doublingERKSt6vectorIiSaIiEEEUliiE_EONSt16remove_referenceIT_E4typeEOSA_, symObjAddr: 0x8FAC, symBinAddr: 0x10000A0B8, symSize: 0x14 }
  - { offsetInCU: 0x4D08D, offset: 0x4D08D, size: 0x8, addend: 0x0, symName: __ZSt16__do_uninit_copyIN9__gnu_cxx17__normal_iteratorIPKiSt6vectorIiSaIiEEEEPiET0_T_SA_S9_, symObjAddr: 0x8EE4, symBinAddr: 0x100009FF0, symSize: 0x8C }
  - { offsetInCU: 0x4D095, offset: 0x4D095, size: 0x8, addend: 0x0, symName: __ZSt18uninitialized_copyIN9__gnu_cxx17__normal_iteratorIPKiSt6vectorIiSaIiEEEEPiET0_T_SA_S9_, symObjAddr: 0x8F70, symBinAddr: 0x10000A07C, symSize: 0x3C }
  - { offsetInCU: 0x4D12A, offset: 0x4D12A, size: 0x8, addend: 0x0, symName: __ZSt22__final_insertion_sortIN9__gnu_cxx17__normal_iteratorIPiSt6vectorIiSaIiEEEENS0_5__ops15_Iter_comp_iterIZN7atcoder8internal8sa_naiveERKS5_EUliiE_EEEvT_SF_T0_, symObjAddr: 0x8E58, symBinAddr: 0x100009F64, symSize: 0x8C }
  - { offsetInCU: 0x4D132, offset: 0x4D132, size: 0x8, addend: 0x0, symName: __ZSt16__do_uninit_copyIN9__gnu_cxx17__normal_iteratorIPKiSt6vectorIiSaIiEEEEPiET0_T_SA_S9_, symObjAddr: 0x8EE4, symBinAddr: 0x100009FF0, symSize: 0x8C }
  - { offsetInCU: 0x4D188, offset: 0x4D188, size: 0x8, addend: 0x0, symName: __ZSt16__introsort_loopIN9__gnu_cxx17__normal_iteratorIPiSt6vectorIiSaIiEEEElNS0_5__ops15_Iter_comp_iterIZN7atcoder8internal8sa_naiveERKS5_EUliiE_EEEvT_SF_T0_T1_, symObjAddr: 0x8DB0, symBinAddr: 0x100009EBC, symSize: 0xA8 }
  - { offsetInCU: 0x4D190, offset: 0x4D190, size: 0x8, addend: 0x0, symName: __ZSt22__final_insertion_sortIN9__gnu_cxx17__normal_iteratorIPiSt6vectorIiSaIiEEEENS0_5__ops15_Iter_comp_iterIZN7atcoder8internal8sa_naiveERKS5_EUliiE_EEEvT_SF_T0_, symObjAddr: 0x8E58, symBinAddr: 0x100009F64, symSize: 0x8C }
  - { offsetInCU: 0x4D224, offset: 0x4D224, size: 0x8, addend: 0x0, symName: __ZSt4__lgIlET_S0_, symObjAddr: 0x8D8C, symBinAddr: 0x100009E98, symSize: 0x24 }
  - { offsetInCU: 0x4D22C, offset: 0x4D22C, size: 0x8, addend: 0x0, symName: __ZSt16__introsort_loopIN9__gnu_cxx17__normal_iteratorIPiSt6vectorIiSaIiEEEElNS0_5__ops15_Iter_comp_iterIZN7atcoder8internal8sa_naiveERKS5_EUliiE_EEEvT_SF_T0_T1_, symObjAddr: 0x8DB0, symBinAddr: 0x100009EBC, symSize: 0xA8 }
  - { offsetInCU: 0x4D280, offset: 0x4D280, size: 0x8, addend: 0x0, symName: __ZN9__gnu_cxx5__ops15_Iter_comp_iterIZN7atcoder8internal8sa_naiveERKSt6vectorIiSaIiEEEUliiE_EC1ES9_, symObjAddr: 0x8D5C, symBinAddr: 0x100009E68, symSize: 0x30 }
  - { offsetInCU: 0x4D288, offset: 0x4D288, size: 0x8, addend: 0x0, symName: __ZSt4__lgIlET_S0_, symObjAddr: 0x8D8C, symBinAddr: 0x100009E98, symSize: 0x24 }
  - { offsetInCU: 0x4D2B0, offset: 0x4D2B0, size: 0x8, addend: 0x0, symName: __ZSt4moveIRZN7atcoder8internal8sa_naiveERKSt6vectorIiSaIiEEEUliiE_EONSt16remove_referenceIT_E4typeEOSA_, symObjAddr: 0x8D48, symBinAddr: 0x100009E54, symSize: 0x14 }
  - { offsetInCU: 0x4D2B8, offset: 0x4D2B8, size: 0x8, addend: 0x0, symName: __ZN9__gnu_cxx5__ops15_Iter_comp_iterIZN7atcoder8internal8sa_naiveERKSt6vectorIiSaIiEEEUliiE_EC1ES9_, symObjAddr: 0x8D5C, symBinAddr: 0x100009E68, symSize: 0x30 }
  - { offsetInCU: 0x4D2E6, offset: 0x4D2E6, size: 0x8, addend: 0x0, symName: __ZNK9__gnu_cxx17__normal_iteratorIPiSt6vectorIiSaIiEEEmiEl, symObjAddr: 0x8D04, symBinAddr: 0x100009E10, symSize: 0x44 }
  - { offsetInCU: 0x4D2EE, offset: 0x4D2EE, size: 0x8, addend: 0x0, symName: __ZSt4moveIRZN7atcoder8internal8sa_naiveERKSt6vectorIiSaIiEEEUliiE_EONSt16remove_referenceIT_E4typeEOSA_, symObjAddr: 0x8D48, symBinAddr: 0x100009E54, symSize: 0x14 }
  - { offsetInCU: 0x4D31E, offset: 0x4D31E, size: 0x8, addend: 0x0, symName: __ZNSt10_Head_baseILm1ERxLb0EE7_M_headERS1_, symObjAddr: 0x8CEC, symBinAddr: 0x100009DF8, symSize: 0x18 }
  - { offsetInCU: 0x4D326, offset: 0x4D326, size: 0x8, addend: 0x0, symName: __ZNK9__gnu_cxx17__normal_iteratorIPiSt6vectorIiSaIiEEEmiEl, symObjAddr: 0x8D04, symBinAddr: 0x100009E10, symSize: 0x44 }
  - { offsetInCU: 0x4D347, offset: 0x4D347, size: 0x8, addend: 0x0, symName: __ZNSt10_Head_baseILm0ERxLb0EE7_M_headERS1_, symObjAddr: 0x8CD4, symBinAddr: 0x100009DE0, symSize: 0x18 }
  - { offsetInCU: 0x4D34F, offset: 0x4D34F, size: 0x8, addend: 0x0, symName: __ZNSt10_Head_baseILm1ERxLb0EE7_M_headERS1_, symObjAddr: 0x8CEC, symBinAddr: 0x100009DF8, symSize: 0x18 }
  - { offsetInCU: 0x4D3D0, offset: 0x4D3D0, size: 0x8, addend: 0x0, symName: __ZNSt11_Tuple_implILm0EJRxS0_EEC2ES0_S0_, symObjAddr: 0x8C98, symBinAddr: 0x100009DA4, symSize: 0x3C }
  - { offsetInCU: 0x4D3D8, offset: 0x4D3D8, size: 0x8, addend: 0x0, symName: __ZNSt10_Head_baseILm0ERxLb0EE7_M_headERS1_, symObjAddr: 0x8CD4, symBinAddr: 0x100009DE0, symSize: 0x18 }
  - { offsetInCU: 0x4D40C, offset: 0x4D40C, size: 0x8, addend: 0x0, symName: __ZSt12construct_atIiJRKiEEDTgsnwcvPvLi0E_T_pispcl7declvalIT0_EEEEPS3_DpOS4_, symObjAddr: 0x8C50, symBinAddr: 0x100009D5C, symSize: 0x48 }
  - { offsetInCU: 0x4D414, offset: 0x4D414, size: 0x8, addend: 0x0, symName: __ZNSt11_Tuple_implILm0EJRxS0_EEC2ES0_S0_, symObjAddr: 0x8C98, symBinAddr: 0x100009DA4, symSize: 0x3C }
  - { offsetInCU: 0x4D45E, offset: 0x4D45E, size: 0x8, addend: 0x0, symName: __ZSt7forwardIRKiEOT_RNSt16remove_referenceIS2_E4typeE, symObjAddr: 0x8C3C, symBinAddr: 0x100009D48, symSize: 0x14 }
  - { offsetInCU: 0x4D466, offset: 0x4D466, size: 0x8, addend: 0x0, symName: __ZSt12construct_atIiJRKiEEDTgsnwcvPvLi0E_T_pispcl7declvalIT0_EEEEPS3_DpOS4_, symObjAddr: 0x8C50, symBinAddr: 0x100009D5C, symSize: 0x48 }
  - { offsetInCU: 0x4D490, offset: 0x4D490, size: 0x8, addend: 0x0, symName: __ZSt12__relocate_aIPiS0_SaIiEET0_T_S3_S2_RT1_, symObjAddr: 0x8BE0, symBinAddr: 0x100009CEC, symSize: 0x5C }
  - { offsetInCU: 0x4D498, offset: 0x4D498, size: 0x8, addend: 0x0, symName: __ZSt7forwardIRKiEOT_RNSt16remove_referenceIS2_E4typeE, symObjAddr: 0x8C3C, symBinAddr: 0x100009D48, symSize: 0x14 }
  - { offsetInCU: 0x4D52C, offset: 0x4D52C, size: 0x8, addend: 0x0, symName: __ZSt27__uninitialized_default_n_aIPimiET_S1_T0_RSaIT1_E, symObjAddr: 0x8BB8, symBinAddr: 0x100009CC4, symSize: 0x28 }
  - { offsetInCU: 0x4D534, offset: 0x4D534, size: 0x8, addend: 0x0, symName: __ZSt12__relocate_aIPiS0_SaIiEET0_T_S3_S2_RT1_, symObjAddr: 0x8BE0, symBinAddr: 0x100009CEC, symSize: 0x5C }
  - { offsetInCU: 0x4D58B, offset: 0x4D58B, size: 0x8, addend: 0x0, symName: __ZSt24__uninitialized_fill_n_aIPimiiET_S1_T0_RKT1_RSaIT2_E, symObjAddr: 0x8B5C, symBinAddr: 0x100009C68, symSize: 0x5C }
  - { offsetInCU: 0x4D593, offset: 0x4D593, size: 0x8, addend: 0x0, symName: __ZSt27__uninitialized_default_n_aIPimiET_S1_T0_RSaIT1_E, symObjAddr: 0x8BB8, symBinAddr: 0x100009CC4, symSize: 0x28 }
  - { offsetInCU: 0x4D608, offset: 0x4D608, size: 0x8, addend: 0x0, symName: __ZNSt12_Vector_baseIiSaIiEE17_M_create_storageEm, symObjAddr: 0x8AFC, symBinAddr: 0x100009C08, symSize: 0x60 }
  - { offsetInCU: 0x4D610, offset: 0x4D610, size: 0x8, addend: 0x0, symName: __ZSt24__uninitialized_fill_n_aIPimiiET_S1_T0_RKT1_RSaIT2_E, symObjAddr: 0x8B5C, symBinAddr: 0x100009C68, symSize: 0x5C }
  - { offsetInCU: 0x4D69A, offset: 0x4D69A, size: 0x8, addend: 0x0, symName: __ZNSt12_Vector_baseIiSaIiEE12_Vector_implC1ERKS0_, symObjAddr: 0x8AB0, symBinAddr: 0x100009BBC, symSize: 0x4C }
  - { offsetInCU: 0x4D6A2, offset: 0x4D6A2, size: 0x8, addend: 0x0, symName: __ZNSt12_Vector_baseIiSaIiEE17_M_create_storageEm, symObjAddr: 0x8AFC, symBinAddr: 0x100009C08, symSize: 0x60 }
  - { offsetInCU: 0x4D6EF, offset: 0x4D6EF, size: 0x8, addend: 0x0, symName: __ZNSt6vectorIiSaIiEE11_S_max_sizeERKS0_, symObjAddr: 0x8A74, symBinAddr: 0x100009B80, symSize: 0x3C }
  - { offsetInCU: 0x4D6F7, offset: 0x4D6F7, size: 0x8, addend: 0x0, symName: __ZNSt12_Vector_baseIiSaIiEE12_Vector_implC1ERKS0_, symObjAddr: 0x8AB0, symBinAddr: 0x100009BBC, symSize: 0x4C }
  - { offsetInCU: 0x4D775, offset: 0x4D775, size: 0x8, addend: 0x0, symName: __ZSt8_DestroyIPiEvT_S1_, symObjAddr: 0x8A2C, symBinAddr: 0x100009B38, symSize: 0x48 }
  - { offsetInCU: 0x4D77D, offset: 0x4D77D, size: 0x8, addend: 0x0, symName: __ZNSt6vectorIiSaIiEE11_S_max_sizeERKS0_, symObjAddr: 0x8A74, symBinAddr: 0x100009B80, symSize: 0x3C }
  - { offsetInCU: 0x4D805, offset: 0x4D805, size: 0x8, addend: 0x0, symName: __ZSt27__uninitialized_default_n_aIPxmxET_S1_T0_RSaIT1_E, symObjAddr: 0x8A04, symBinAddr: 0x100009B10, symSize: 0x28 }
  - { offsetInCU: 0x4D80D, offset: 0x4D80D, size: 0x8, addend: 0x0, symName: __ZSt8_DestroyIPiEvT_S1_, symObjAddr: 0x8A2C, symBinAddr: 0x100009B38, symSize: 0x48 }
  - { offsetInCU: 0x4D868, offset: 0x4D868, size: 0x8, addend: 0x0, symName: __ZNSt12_Vector_baseIxSaIxEE17_M_create_storageEm, symObjAddr: 0x89A4, symBinAddr: 0x100009AB0, symSize: 0x60 }
  - { offsetInCU: 0x4D870, offset: 0x4D870, size: 0x8, addend: 0x0, symName: __ZSt27__uninitialized_default_n_aIPxmxET_S1_T0_RSaIT1_E, symObjAddr: 0x8A04, symBinAddr: 0x100009B10, symSize: 0x28 }
  - { offsetInCU: 0x4D8FA, offset: 0x4D8FA, size: 0x8, addend: 0x0, symName: __ZNSt12_Vector_baseIxSaIxEE12_Vector_implC1ERKS0_, symObjAddr: 0x8958, symBinAddr: 0x100009A64, symSize: 0x4C }
  - { offsetInCU: 0x4D902, offset: 0x4D902, size: 0x8, addend: 0x0, symName: __ZNSt12_Vector_baseIxSaIxEE17_M_create_storageEm, symObjAddr: 0x89A4, symBinAddr: 0x100009AB0, symSize: 0x60 }
  - { offsetInCU: 0x4D94F, offset: 0x4D94F, size: 0x8, addend: 0x0, symName: __ZNSt6vectorIxSaIxEE11_S_max_sizeERKS0_, symObjAddr: 0x891C, symBinAddr: 0x100009A28, symSize: 0x3C }
  - { offsetInCU: 0x4D957, offset: 0x4D957, size: 0x8, addend: 0x0, symName: __ZNSt12_Vector_baseIxSaIxEE12_Vector_implC1ERKS0_, symObjAddr: 0x8958, symBinAddr: 0x100009A64, symSize: 0x4C }
  - { offsetInCU: 0x4D9D5, offset: 0x4D9D5, size: 0x8, addend: 0x0, symName: __ZN7atcoder8internal15convolution_fftINS_13static_modintILi469762049ELPv0EEELS3_0EEESt6vectorIT_SaIS6_EES8_S8_, symObjAddr: 0x87A4, symBinAddr: 0x1000098B0, symSize: 0x178 }
  - { offsetInCU: 0x4D9DD, offset: 0x4D9DD, size: 0x8, addend: 0x0, symName: __ZNSt6vectorIxSaIxEE11_S_max_sizeERKS0_, symObjAddr: 0x891C, symBinAddr: 0x100009A28, symSize: 0x3C }
  - { offsetInCU: 0x4DB12, offset: 0x4DB12, size: 0x8, addend: 0x0, symName: __ZNSt6vectorIN7atcoder13static_modintILi469762049ELPv0EEESaIS3_EEC1ERKS5_, symObjAddr: 0x86B0, symBinAddr: 0x1000097BC, symSize: 0xF4 }
  - { offsetInCU: 0x4DB1A, offset: 0x4DB1A, size: 0x8, addend: 0x0, symName: __ZN7atcoder8internal15convolution_fftINS_13static_modintILi469762049ELPv0EEELS3_0EEESt6vectorIT_SaIS6_EES8_S8_, symObjAddr: 0x87A4, symBinAddr: 0x1000098B0, symSize: 0x178 }
  - { offsetInCU: 0x4DBBA, offset: 0x4DBBA, size: 0x8, addend: 0x0, symName: __ZN7atcoder8internal17convolution_naiveINS_13static_modintILi469762049ELPv0EEELS3_0EEESt6vectorIT_SaIS6_EERKS8_SA_, symObjAddr: 0x84B4, symBinAddr: 0x1000095C0, symSize: 0x1FC }
  - { offsetInCU: 0x4DBC2, offset: 0x4DBC2, size: 0x8, addend: 0x0, symName: __ZNSt6vectorIN7atcoder13static_modintILi469762049ELPv0EEESaIS3_EEC1ERKS5_, symObjAddr: 0x86B0, symBinAddr: 0x1000097BC, symSize: 0xF4 }
  - { offsetInCU: 0x4DD86, offset: 0x4DD86, size: 0x8, addend: 0x0, symName: __ZNSt6vectorIN7atcoder13static_modintILi469762049ELPv0EEESaIS3_EEC1EOS5_, symObjAddr: 0x848C, symBinAddr: 0x100009598, symSize: 0x28 }
  - { offsetInCU: 0x4DD8E, offset: 0x4DD8E, size: 0x8, addend: 0x0, symName: __ZN7atcoder8internal17convolution_naiveINS_13static_modintILi469762049ELPv0EEELS3_0EEESt6vectorIT_SaIS6_EERKS8_SA_, symObjAddr: 0x84B4, symBinAddr: 0x1000095C0, symSize: 0x1FC }
  - { offsetInCU: 0x4DDDC, offset: 0x4DDDC, size: 0x8, addend: 0x0, symName: __ZNSt12_Vector_baseIN7atcoder13static_modintILi469762049ELPv0EEESaIS3_EEC2EOS5_, symObjAddr: 0x8464, symBinAddr: 0x100009570, symSize: 0x28 }
  - { offsetInCU: 0x4DDE4, offset: 0x4DDE4, size: 0x8, addend: 0x0, symName: __ZNSt6vectorIN7atcoder13static_modintILi469762049ELPv0EEESaIS3_EEC1EOS5_, symObjAddr: 0x848C, symBinAddr: 0x100009598, symSize: 0x28 }
  - { offsetInCU: 0x4DE31, offset: 0x4DE31, size: 0x8, addend: 0x0, symName: __ZNSt12_Vector_baseIN7atcoder13static_modintILi469762049ELPv0EEESaIS3_EE12_Vector_implC1Ev, symObjAddr: 0x842C, symBinAddr: 0x100009538, symSize: 0x38 }
  - { offsetInCU: 0x4DE39, offset: 0x4DE39, size: 0x8, addend: 0x0, symName: __ZNSt12_Vector_baseIN7atcoder13static_modintILi469762049ELPv0EEESaIS3_EEC2EOS5_, symObjAddr: 0x8464, symBinAddr: 0x100009570, symSize: 0x28 }
  - { offsetInCU: 0x4DE46, offset: 0x4DE46, size: 0x8, addend: 0x0, symName: __ZNKSt6vectorIN7atcoder13static_modintILi469762049ELPv0EEESaIS3_EE4sizeEv, symObjAddr: 0x8404, symBinAddr: 0x100009510, symSize: 0x28 }
  - { offsetInCU: 0x4DE4E, offset: 0x4DE4E, size: 0x8, addend: 0x0, symName: __ZNSt12_Vector_baseIN7atcoder13static_modintILi469762049ELPv0EEESaIS3_EE12_Vector_implC1Ev, symObjAddr: 0x842C, symBinAddr: 0x100009538, symSize: 0x38 }
  - { offsetInCU: 0x4DEAC, offset: 0x4DEAC, size: 0x8, addend: 0x0, symName: __ZNSt12_Vector_baseIN7atcoder13static_modintILi469762049ELPv0EEESaIS3_EE19_M_get_Tp_allocatorEv, symObjAddr: 0x83F0, symBinAddr: 0x1000094FC, symSize: 0x14 }
  - { offsetInCU: 0x4DEB4, offset: 0x4DEB4, size: 0x8, addend: 0x0, symName: __ZNKSt6vectorIN7atcoder13static_modintILi469762049ELPv0EEESaIS3_EE4sizeEv, symObjAddr: 0x8404, symBinAddr: 0x100009510, symSize: 0x28 }
  - { offsetInCU: 0x4DED7, offset: 0x4DED7, size: 0x8, addend: 0x0, symName: __ZNSt6vectorIN7atcoder13static_modintILi469762049ELPv0EEESaIS3_EE21_M_default_initializeEm, symObjAddr: 0x83A0, symBinAddr: 0x1000094AC, symSize: 0x50 }
  - { offsetInCU: 0x4DEDF, offset: 0x4DEDF, size: 0x8, addend: 0x0, symName: __ZNSt12_Vector_baseIN7atcoder13static_modintILi469762049ELPv0EEESaIS3_EE19_M_get_Tp_allocatorEv, symObjAddr: 0x83F0, symBinAddr: 0x1000094FC, symSize: 0x14 }
  - { offsetInCU: 0x4DF82, offset: 0x4DF82, size: 0x8, addend: 0x0, symName: __ZNSt12_Vector_baseIN7atcoder13static_modintILi469762049ELPv0EEESaIS3_EED2Ev, symObjAddr: 0x8350, symBinAddr: 0x10000945C, symSize: 0x50 }
  - { offsetInCU: 0x4DF8A, offset: 0x4DF8A, size: 0x8, addend: 0x0, symName: __ZNSt6vectorIN7atcoder13static_modintILi469762049ELPv0EEESaIS3_EE21_M_default_initializeEm, symObjAddr: 0x83A0, symBinAddr: 0x1000094AC, symSize: 0x50 }
  - { offsetInCU: 0x4DFE4, offset: 0x4DFE4, size: 0x8, addend: 0x0, symName: __ZNSt12_Vector_baseIN7atcoder13static_modintILi469762049ELPv0EEESaIS3_EEC2EmRKS4_, symObjAddr: 0x82FC, symBinAddr: 0x100009408, symSize: 0x54 }
  - { offsetInCU: 0x4DFEC, offset: 0x4DFEC, size: 0x8, addend: 0x0, symName: __ZNSt12_Vector_baseIN7atcoder13static_modintILi469762049ELPv0EEESaIS3_EED2Ev, symObjAddr: 0x8350, symBinAddr: 0x10000945C, symSize: 0x50 }
  - { offsetInCU: 0x4DFCA, offset: 0x4DFCA, size: 0x8, addend: 0x0, symName: __ZNSt6vectorIN7atcoder13static_modintILi469762049ELPv0EEESaIS3_EE17_S_check_init_lenEmRKS4_, symObjAddr: 0x8288, symBinAddr: 0x100009394, symSize: 0x74 }
  - { offsetInCU: 0x4DFD2, offset: 0x4DFD2, size: 0x8, addend: 0x0, symName: __ZNSt12_Vector_baseIN7atcoder13static_modintILi469762049ELPv0EEESaIS3_EEC2EmRKS4_, symObjAddr: 0x82FC, symBinAddr: 0x100009408, symSize: 0x54 }
  - { offsetInCU: 0x4E093, offset: 0x4E093, size: 0x8, addend: 0x0, symName: __ZN7atcoder8internal15convolution_fftINS_13static_modintILi167772161ELPv0EEELS3_0EEESt6vectorIT_SaIS6_EES8_S8_, symObjAddr: 0x8110, symBinAddr: 0x10000921C, symSize: 0x178 }
  - { offsetInCU: 0x4E09B, offset: 0x4E09B, size: 0x8, addend: 0x0, symName: __ZNSt6vectorIN7atcoder13static_modintILi469762049ELPv0EEESaIS3_EE17_S_check_init_lenEmRKS4_, symObjAddr: 0x8288, symBinAddr: 0x100009394, symSize: 0x74 }
  - { offsetInCU: 0x4E1D0, offset: 0x4E1D0, size: 0x8, addend: 0x0, symName: __ZNSt6vectorIN7atcoder13static_modintILi167772161ELPv0EEESaIS3_EEC1ERKS5_, symObjAddr: 0x801C, symBinAddr: 0x100009128, symSize: 0xF4 }
  - { offsetInCU: 0x4E1D8, offset: 0x4E1D8, size: 0x8, addend: 0x0, symName: __ZN7atcoder8internal15convolution_fftINS_13static_modintILi167772161ELPv0EEELS3_0EEESt6vectorIT_SaIS6_EES8_S8_, symObjAddr: 0x8110, symBinAddr: 0x10000921C, symSize: 0x178 }
  - { offsetInCU: 0x4E278, offset: 0x4E278, size: 0x8, addend: 0x0, symName: __ZN7atcoder8internal17convolution_naiveINS_13static_modintILi167772161ELPv0EEELS3_0EEESt6vectorIT_SaIS6_EERKS8_SA_, symObjAddr: 0x7E20, symBinAddr: 0x100008F2C, symSize: 0x1FC }
  - { offsetInCU: 0x4E280, offset: 0x4E280, size: 0x8, addend: 0x0, symName: __ZNSt6vectorIN7atcoder13static_modintILi167772161ELPv0EEESaIS3_EEC1ERKS5_, symObjAddr: 0x801C, symBinAddr: 0x100009128, symSize: 0xF4 }
  - { offsetInCU: 0x4E444, offset: 0x4E444, size: 0x8, addend: 0x0, symName: __ZNSt6vectorIN7atcoder13static_modintILi167772161ELPv0EEESaIS3_EEC1EOS5_, symObjAddr: 0x7DF8, symBinAddr: 0x100008F04, symSize: 0x28 }
  - { offsetInCU: 0x4E44C, offset: 0x4E44C, size: 0x8, addend: 0x0, symName: __ZN7atcoder8internal17convolution_naiveINS_13static_modintILi167772161ELPv0EEELS3_0EEESt6vectorIT_SaIS6_EERKS8_SA_, symObjAddr: 0x7E20, symBinAddr: 0x100008F2C, symSize: 0x1FC }
  - { offsetInCU: 0x4E49A, offset: 0x4E49A, size: 0x8, addend: 0x0, symName: __ZNSt12_Vector_baseIN7atcoder13static_modintILi167772161ELPv0EEESaIS3_EEC2EOS5_, symObjAddr: 0x7DD0, symBinAddr: 0x100008EDC, symSize: 0x28 }
  - { offsetInCU: 0x4E4A2, offset: 0x4E4A2, size: 0x8, addend: 0x0, symName: __ZNSt6vectorIN7atcoder13static_modintILi167772161ELPv0EEESaIS3_EEC1EOS5_, symObjAddr: 0x7DF8, symBinAddr: 0x100008F04, symSize: 0x28 }
  - { offsetInCU: 0x4E4EF, offset: 0x4E4EF, size: 0x8, addend: 0x0, symName: __ZNSt12_Vector_baseIN7atcoder13static_modintILi167772161ELPv0EEESaIS3_EE12_Vector_implC1Ev, symObjAddr: 0x7D98, symBinAddr: 0x100008EA4, symSize: 0x38 }
  - { offsetInCU: 0x4E4F7, offset: 0x4E4F7, size: 0x8, addend: 0x0, symName: __ZNSt12_Vector_baseIN7atcoder13static_modintILi167772161ELPv0EEESaIS3_EEC2EOS5_, symObjAddr: 0x7DD0, symBinAddr: 0x100008EDC, symSize: 0x28 }
  - { offsetInCU: 0x4E504, offset: 0x4E504, size: 0x8, addend: 0x0, symName: __ZNKSt6vectorIN7atcoder13static_modintILi167772161ELPv0EEESaIS3_EE4sizeEv, symObjAddr: 0x7D70, symBinAddr: 0x100008E7C, symSize: 0x28 }
  - { offsetInCU: 0x4E50C, offset: 0x4E50C, size: 0x8, addend: 0x0, symName: __ZNSt12_Vector_baseIN7atcoder13static_modintILi167772161ELPv0EEESaIS3_EE12_Vector_implC1Ev, symObjAddr: 0x7D98, symBinAddr: 0x100008EA4, symSize: 0x38 }
  - { offsetInCU: 0x4E56A, offset: 0x4E56A, size: 0x8, addend: 0x0, symName: __ZNSt12_Vector_baseIN7atcoder13static_modintILi167772161ELPv0EEESaIS3_EE19_M_get_Tp_allocatorEv, symObjAddr: 0x7D5C, symBinAddr: 0x100008E68, symSize: 0x14 }
  - { offsetInCU: 0x4E572, offset: 0x4E572, size: 0x8, addend: 0x0, symName: __ZNKSt6vectorIN7atcoder13static_modintILi167772161ELPv0EEESaIS3_EE4sizeEv, symObjAddr: 0x7D70, symBinAddr: 0x100008E7C, symSize: 0x28 }
  - { offsetInCU: 0x4E595, offset: 0x4E595, size: 0x8, addend: 0x0, symName: __ZNSt6vectorIN7atcoder13static_modintILi167772161ELPv0EEESaIS3_EE21_M_default_initializeEm, symObjAddr: 0x7D0C, symBinAddr: 0x100008E18, symSize: 0x50 }
  - { offsetInCU: 0x4E59D, offset: 0x4E59D, size: 0x8, addend: 0x0, symName: __ZNSt12_Vector_baseIN7atcoder13static_modintILi167772161ELPv0EEESaIS3_EE19_M_get_Tp_allocatorEv, symObjAddr: 0x7D5C, symBinAddr: 0x100008E68, symSize: 0x14 }
  - { offsetInCU: 0x4E640, offset: 0x4E640, size: 0x8, addend: 0x0, symName: __ZNSt12_Vector_baseIN7atcoder13static_modintILi167772161ELPv0EEESaIS3_EED2Ev, symObjAddr: 0x7CBC, symBinAddr: 0x100008DC8, symSize: 0x50 }
  - { offsetInCU: 0x4E648, offset: 0x4E648, size: 0x8, addend: 0x0, symName: __ZNSt6vectorIN7atcoder13static_modintILi167772161ELPv0EEESaIS3_EE21_M_default_initializeEm, symObjAddr: 0x7D0C, symBinAddr: 0x100008E18, symSize: 0x50 }
  - { offsetInCU: 0x4E6A2, offset: 0x4E6A2, size: 0x8, addend: 0x0, symName: __ZNSt12_Vector_baseIN7atcoder13static_modintILi167772161ELPv0EEESaIS3_EEC2EmRKS4_, symObjAddr: 0x7C68, symBinAddr: 0x100008D74, symSize: 0x54 }
  - { offsetInCU: 0x4E6AA, offset: 0x4E6AA, size: 0x8, addend: 0x0, symName: __ZNSt12_Vector_baseIN7atcoder13static_modintILi167772161ELPv0EEESaIS3_EED2Ev, symObjAddr: 0x7CBC, symBinAddr: 0x100008DC8, symSize: 0x50 }
  - { offsetInCU: 0x4E688, offset: 0x4E688, size: 0x8, addend: 0x0, symName: __ZNSt6vectorIN7atcoder13static_modintILi167772161ELPv0EEESaIS3_EE17_S_check_init_lenEmRKS4_, symObjAddr: 0x7BF4, symBinAddr: 0x100008D00, symSize: 0x74 }
  - { offsetInCU: 0x4E690, offset: 0x4E690, size: 0x8, addend: 0x0, symName: __ZNSt12_Vector_baseIN7atcoder13static_modintILi167772161ELPv0EEESaIS3_EEC2EmRKS4_, symObjAddr: 0x7C68, symBinAddr: 0x100008D74, symSize: 0x54 }
  - { offsetInCU: 0x4E751, offset: 0x4E751, size: 0x8, addend: 0x0, symName: __ZN7atcoder8internal15convolution_fftINS_13static_modintILi754974721ELPv0EEELS3_0EEESt6vectorIT_SaIS6_EES8_S8_, symObjAddr: 0x7A7C, symBinAddr: 0x100008B88, symSize: 0x178 }
  - { offsetInCU: 0x4E759, offset: 0x4E759, size: 0x8, addend: 0x0, symName: __ZNSt6vectorIN7atcoder13static_modintILi167772161ELPv0EEESaIS3_EE17_S_check_init_lenEmRKS4_, symObjAddr: 0x7BF4, symBinAddr: 0x100008D00, symSize: 0x74 }
  - { offsetInCU: 0x4E88E, offset: 0x4E88E, size: 0x8, addend: 0x0, symName: __ZNSt6vectorIN7atcoder13static_modintILi754974721ELPv0EEESaIS3_EEC1ERKS5_, symObjAddr: 0x7988, symBinAddr: 0x100008A94, symSize: 0xF4 }
  - { offsetInCU: 0x4E896, offset: 0x4E896, size: 0x8, addend: 0x0, symName: __ZN7atcoder8internal15convolution_fftINS_13static_modintILi754974721ELPv0EEELS3_0EEESt6vectorIT_SaIS6_EES8_S8_, symObjAddr: 0x7A7C, symBinAddr: 0x100008B88, symSize: 0x178 }
  - { offsetInCU: 0x4E936, offset: 0x4E936, size: 0x8, addend: 0x0, symName: __ZN7atcoder8internal17convolution_naiveINS_13static_modintILi754974721ELPv0EEELS3_0EEESt6vectorIT_SaIS6_EERKS8_SA_, symObjAddr: 0x778C, symBinAddr: 0x100008898, symSize: 0x1FC }
  - { offsetInCU: 0x4E93E, offset: 0x4E93E, size: 0x8, addend: 0x0, symName: __ZNSt6vectorIN7atcoder13static_modintILi754974721ELPv0EEESaIS3_EEC1ERKS5_, symObjAddr: 0x7988, symBinAddr: 0x100008A94, symSize: 0xF4 }
  - { offsetInCU: 0x4EB02, offset: 0x4EB02, size: 0x8, addend: 0x0, symName: __ZNSt6vectorIN7atcoder13static_modintILi754974721ELPv0EEESaIS3_EEC1EOS5_, symObjAddr: 0x7764, symBinAddr: 0x100008870, symSize: 0x28 }
  - { offsetInCU: 0x4EB0A, offset: 0x4EB0A, size: 0x8, addend: 0x0, symName: __ZN7atcoder8internal17convolution_naiveINS_13static_modintILi754974721ELPv0EEELS3_0EEESt6vectorIT_SaIS6_EERKS8_SA_, symObjAddr: 0x778C, symBinAddr: 0x100008898, symSize: 0x1FC }
  - { offsetInCU: 0x4EB58, offset: 0x4EB58, size: 0x8, addend: 0x0, symName: __ZNSt12_Vector_baseIN7atcoder13static_modintILi754974721ELPv0EEESaIS3_EEC2EOS5_, symObjAddr: 0x773C, symBinAddr: 0x100008848, symSize: 0x28 }
  - { offsetInCU: 0x4EB60, offset: 0x4EB60, size: 0x8, addend: 0x0, symName: __ZNSt6vectorIN7atcoder13static_modintILi754974721ELPv0EEESaIS3_EEC1EOS5_, symObjAddr: 0x7764, symBinAddr: 0x100008870, symSize: 0x28 }
  - { offsetInCU: 0x4EBAD, offset: 0x4EBAD, size: 0x8, addend: 0x0, symName: __ZNSt12_Vector_baseIN7atcoder13static_modintILi754974721ELPv0EEESaIS3_EE12_Vector_implC1Ev, symObjAddr: 0x7704, symBinAddr: 0x100008810, symSize: 0x38 }
  - { offsetInCU: 0x4EBB5, offset: 0x4EBB5, size: 0x8, addend: 0x0, symName: __ZNSt12_Vector_baseIN7atcoder13static_modintILi754974721ELPv0EEESaIS3_EEC2EOS5_, symObjAddr: 0x773C, symBinAddr: 0x100008848, symSize: 0x28 }
  - { offsetInCU: 0x4EBC2, offset: 0x4EBC2, size: 0x8, addend: 0x0, symName: __ZNKSt6vectorIN7atcoder13static_modintILi754974721ELPv0EEESaIS3_EE4sizeEv, symObjAddr: 0x76DC, symBinAddr: 0x1000087E8, symSize: 0x28 }
  - { offsetInCU: 0x4EBCA, offset: 0x4EBCA, size: 0x8, addend: 0x0, symName: __ZNSt12_Vector_baseIN7atcoder13static_modintILi754974721ELPv0EEESaIS3_EE12_Vector_implC1Ev, symObjAddr: 0x7704, symBinAddr: 0x100008810, symSize: 0x38 }
  - { offsetInCU: 0x4EC28, offset: 0x4EC28, size: 0x8, addend: 0x0, symName: __ZNSt12_Vector_baseIN7atcoder13static_modintILi754974721ELPv0EEESaIS3_EE19_M_get_Tp_allocatorEv, symObjAddr: 0x76C8, symBinAddr: 0x1000087D4, symSize: 0x14 }
  - { offsetInCU: 0x4EC30, offset: 0x4EC30, size: 0x8, addend: 0x0, symName: __ZNKSt6vectorIN7atcoder13static_modintILi754974721ELPv0EEESaIS3_EE4sizeEv, symObjAddr: 0x76DC, symBinAddr: 0x1000087E8, symSize: 0x28 }
  - { offsetInCU: 0x4EC53, offset: 0x4EC53, size: 0x8, addend: 0x0, symName: __ZNSt6vectorIN7atcoder13static_modintILi754974721ELPv0EEESaIS3_EE21_M_default_initializeEm, symObjAddr: 0x7678, symBinAddr: 0x100008784, symSize: 0x50 }
  - { offsetInCU: 0x4EC5B, offset: 0x4EC5B, size: 0x8, addend: 0x0, symName: __ZNSt12_Vector_baseIN7atcoder13static_modintILi754974721ELPv0EEESaIS3_EE19_M_get_Tp_allocatorEv, symObjAddr: 0x76C8, symBinAddr: 0x1000087D4, symSize: 0x14 }
  - { offsetInCU: 0x4ECFE, offset: 0x4ECFE, size: 0x8, addend: 0x0, symName: __ZNSt12_Vector_baseIN7atcoder13static_modintILi754974721ELPv0EEESaIS3_EED2Ev, symObjAddr: 0x7628, symBinAddr: 0x100008734, symSize: 0x50 }
  - { offsetInCU: 0x4ED06, offset: 0x4ED06, size: 0x8, addend: 0x0, symName: __ZNSt6vectorIN7atcoder13static_modintILi754974721ELPv0EEESaIS3_EE21_M_default_initializeEm, symObjAddr: 0x7678, symBinAddr: 0x100008784, symSize: 0x50 }
  - { offsetInCU: 0x4ED60, offset: 0x4ED60, size: 0x8, addend: 0x0, symName: __ZNSt12_Vector_baseIN7atcoder13static_modintILi754974721ELPv0EEESaIS3_EEC2EmRKS4_, symObjAddr: 0x75D4, symBinAddr: 0x1000086E0, symSize: 0x54 }
  - { offsetInCU: 0x4ED68, offset: 0x4ED68, size: 0x8, addend: 0x0, symName: __ZNSt12_Vector_baseIN7atcoder13static_modintILi754974721ELPv0EEESaIS3_EED2Ev, symObjAddr: 0x7628, symBinAddr: 0x100008734, symSize: 0x50 }
  - { offsetInCU: 0x4ED46, offset: 0x4ED46, size: 0x8, addend: 0x0, symName: __ZNSt6vectorIN7atcoder13static_modintILi754974721ELPv0EEESaIS3_EE17_S_check_init_lenEmRKS4_, symObjAddr: 0x7560, symBinAddr: 0x10000866C, symSize: 0x74 }
  - { offsetInCU: 0x4ED4E, offset: 0x4ED4E, size: 0x8, addend: 0x0, symName: __ZNSt12_Vector_baseIN7atcoder13static_modintILi754974721ELPv0EEESaIS3_EEC2EmRKS4_, symObjAddr: 0x75D4, symBinAddr: 0x1000086E0, symSize: 0x54 }
  - { offsetInCU: 0x4EE0F, offset: 0x4EE0F, size: 0x8, addend: 0x0, symName: __ZSt10__bit_ceilIjET_S0_, symObjAddr: 0x74AC, symBinAddr: 0x1000085B8, symSize: 0xB4 }
  - { offsetInCU: 0x4EE17, offset: 0x4EE17, size: 0x8, addend: 0x0, symName: __ZNSt6vectorIN7atcoder13static_modintILi754974721ELPv0EEESaIS3_EE17_S_check_init_lenEmRKS4_, symObjAddr: 0x7560, symBinAddr: 0x10000866C, symSize: 0x74 }
  - { offsetInCU: 0x4EE64, offset: 0x4EE64, size: 0x8, addend: 0x0, symName: __ZSt8_DestroyIPxEvT_S1_, symObjAddr: 0x7464, symBinAddr: 0x100008570, symSize: 0x48 }
  - { offsetInCU: 0x4EE6C, offset: 0x4EE6C, size: 0x8, addend: 0x0, symName: __ZSt10__bit_ceilIjET_S0_, symObjAddr: 0x74AC, symBinAddr: 0x1000085B8, symSize: 0xB4 }
  - { offsetInCU: 0x4EF21, offset: 0x4EF21, size: 0x8, addend: 0x0, symName: __ZSt11__addressofImEPT_RS0_, symObjAddr: 0x7450, symBinAddr: 0x10000855C, symSize: 0x14 }
  - { offsetInCU: 0x4EF29, offset: 0x4EF29, size: 0x8, addend: 0x0, symName: __ZSt8_DestroyIPxEvT_S1_, symObjAddr: 0x7464, symBinAddr: 0x100008570, symSize: 0x48 }
  - { offsetInCU: 0x4EF53, offset: 0x4EF53, size: 0x8, addend: 0x0, symName: __ZSt11__bit_widthImEiT_, symObjAddr: 0x7420, symBinAddr: 0x10000852C, symSize: 0x30 }
  - { offsetInCU: 0x4EF5B, offset: 0x4EF5B, size: 0x8, addend: 0x0, symName: __ZSt11__addressofImEPT_RS0_, symObjAddr: 0x7450, symBinAddr: 0x10000855C, symSize: 0x14 }
  - { offsetInCU: 0x4EF9B, offset: 0x4EF9B, size: 0x8, addend: 0x0, symName: __ZNSt5stackISt4pairIN7atcoder13static_modintILi998244353ELPv0EEES4_ESt5dequeIS5_SaIS5_EEE3topEv, symObjAddr: 0x7404, symBinAddr: 0x100008510, symSize: 0x1C }
  - { offsetInCU: 0x4EFA3, offset: 0x4EFA3, size: 0x8, addend: 0x0, symName: __ZSt11__bit_widthImEiT_, symObjAddr: 0x7420, symBinAddr: 0x10000852C, symSize: 0x30 }
  - { offsetInCU: 0x4EFC6, offset: 0x4EFC6, size: 0x8, addend: 0x0, symName: __ZN4swagISt4pairIN7atcoder13static_modintILi998244353ELPv0EEES4_EXtlN2opMUlS5_S5_E_EEEXtlN1eMUlvE_EEEE7_poptopEv, symObjAddr: 0x73C8, symBinAddr: 0x1000084D4, symSize: 0x3C }
  - { offsetInCU: 0x4EFCE, offset: 0x4EFCE, size: 0x8, addend: 0x0, symName: __ZNSt5stackISt4pairIN7atcoder13static_modintILi998244353ELPv0EEES4_ESt5dequeIS5_SaIS5_EEE3topEv, symObjAddr: 0x7404, symBinAddr: 0x100008510, symSize: 0x1C }
  - { offsetInCU: 0x4F001, offset: 0x4F001, size: 0x8, addend: 0x0, symName: __ZNSt6vectorISt4pairIN7atcoder13static_modintILi998244353ELPv0EEES4_ESaIS5_EEixEm, symObjAddr: 0x73A0, symBinAddr: 0x1000084AC, symSize: 0x28 }
  - { offsetInCU: 0x4F009, offset: 0x4F009, size: 0x8, addend: 0x0, symName: __ZN4swagISt4pairIN7atcoder13static_modintILi998244353ELPv0EEES4_EXtlN2opMUlS5_S5_E_EEEXtlN1eMUlvE_EEEE7_poptopEv, symObjAddr: 0x73C8, symBinAddr: 0x1000084D4, symSize: 0x3C }
  - { offsetInCU: 0x4F03D, offset: 0x4F03D, size: 0x8, addend: 0x0, symName: __ZN4swagISt4pairIN7atcoder13static_modintILi998244353ELPv0EEES4_EXtlN2opMUlS5_S5_E_EEEXtlN1eMUlvE_EEEE8_pushtopES5_, symObjAddr: 0x7334, symBinAddr: 0x100008440, symSize: 0x6C }
  - { offsetInCU: 0x4F045, offset: 0x4F045, size: 0x8, addend: 0x0, symName: __ZNSt6vectorISt4pairIN7atcoder13static_modintILi998244353ELPv0EEES4_ESaIS5_EEixEm, symObjAddr: 0x73A0, symBinAddr: 0x1000084AC, symSize: 0x28 }
  - { offsetInCU: 0x4F078, offset: 0x4F078, size: 0x8, addend: 0x0, symName: __ZNSt6vectorISt4pairIN7atcoder13static_modintILi998244353ELPv0EEES4_ESaIS5_EE9push_backEOS5_, symObjAddr: 0x7304, symBinAddr: 0x100008410, symSize: 0x30 }
  - { offsetInCU: 0x4F080, offset: 0x4F080, size: 0x8, addend: 0x0, symName: __ZN4swagISt4pairIN7atcoder13static_modintILi998244353ELPv0EEES4_EXtlN2opMUlS5_S5_E_EEEXtlN1eMUlvE_EEEE8_pushtopES5_, symObjAddr: 0x7334, symBinAddr: 0x100008440, symSize: 0x6C }
  - { offsetInCU: 0x4F0B4, offset: 0x4F0B4, size: 0x8, addend: 0x0, symName: __ZN4swagISt4pairIN7atcoder13static_modintILi998244353ELPv0EEES4_EXtlN2opMUlS5_S5_E_EEEXtlN1eMUlvE_EEEE10_popbottomEv, symObjAddr: 0x72C0, symBinAddr: 0x1000083CC, symSize: 0x44 }
  - { offsetInCU: 0x4F0BC, offset: 0x4F0BC, size: 0x8, addend: 0x0, symName: __ZNSt6vectorISt4pairIN7atcoder13static_modintILi998244353ELPv0EEES4_ESaIS5_EE9push_backEOS5_, symObjAddr: 0x7304, symBinAddr: 0x100008410, symSize: 0x30 }
  - { offsetInCU: 0x4F163, offset: 0x4F163, size: 0x8, addend: 0x0, symName: __ZNSt6vectorISt4pairIN7atcoder13static_modintILi998244353ELPv0EEES4_ESaIS5_EED1Ev, symObjAddr: 0x7264, symBinAddr: 0x100008370, symSize: 0x5C }
  - { offsetInCU: 0x4F16B, offset: 0x4F16B, size: 0x8, addend: 0x0, symName: __ZN4swagISt4pairIN7atcoder13static_modintILi998244353ELPv0EEES4_EXtlN2opMUlS5_S5_E_EEEXtlN1eMUlvE_EEEE10_popbottomEv, symObjAddr: 0x72C0, symBinAddr: 0x1000083CC, symSize: 0x44 }
  - { offsetInCU: 0x4F1EC, offset: 0x4F1EC, size: 0x8, addend: 0x0, symName: __ZNSt12_Vector_baseISt4pairIN7atcoder13static_modintILi998244353ELPv0EEES4_ESaIS5_EED2Ev, symObjAddr: 0x7214, symBinAddr: 0x100008320, symSize: 0x50 }
  - { offsetInCU: 0x4F1F4, offset: 0x4F1F4, size: 0x8, addend: 0x0, symName: __ZNSt6vectorISt4pairIN7atcoder13static_modintILi998244353ELPv0EEES4_ESaIS5_EED1Ev, symObjAddr: 0x7264, symBinAddr: 0x100008370, symSize: 0x5C }
  - { offsetInCU: 0x4F1DF, offset: 0x4F1DF, size: 0x8, addend: 0x0, symName: __ZNKSt5stackISt4pairIN7atcoder13static_modintILi998244353ELPv0EEES4_ESt5dequeIS5_SaIS5_EEE5emptyEv, symObjAddr: 0x71F4, symBinAddr: 0x100008300, symSize: 0x20 }
  - { offsetInCU: 0x4F1E7, offset: 0x4F1E7, size: 0x8, addend: 0x0, symName: __ZNSt12_Vector_baseISt4pairIN7atcoder13static_modintILi998244353ELPv0EEES4_ESaIS5_EED2Ev, symObjAddr: 0x7214, symBinAddr: 0x100008320, symSize: 0x50 }
  - { offsetInCU: 0x4F20A, offset: 0x4F20A, size: 0x8, addend: 0x0, symName: __ZN4swagISt4pairIN7atcoder13static_modintILi998244353ELPv0EEES4_EXtlN2opMUlS5_S5_E_EEEXtlN1eMUlvE_EEEE11_pushbottomES5_, symObjAddr: 0x7184, symBinAddr: 0x100008290, symSize: 0x70 }
  - { offsetInCU: 0x4F212, offset: 0x4F212, size: 0x8, addend: 0x0, symName: __ZNKSt5stackISt4pairIN7atcoder13static_modintILi998244353ELPv0EEES4_ESt5dequeIS5_SaIS5_EEE5emptyEv, symObjAddr: 0x71F4, symBinAddr: 0x100008300, symSize: 0x20 }
  - { offsetInCU: 0x4F245, offset: 0x4F245, size: 0x8, addend: 0x0, symName: __ZNSt5dequeISt4pairIN7atcoder13static_modintILi998244353ELPv0EEES4_ESaIS5_EE15_M_destroy_dataESt15_Deque_iteratorIS5_RS5_PS5_ESB_RKS6_, symObjAddr: 0x7164, symBinAddr: 0x100008270, symSize: 0x20 }
  - { offsetInCU: 0x4F24D, offset: 0x4F24D, size: 0x8, addend: 0x0, symName: __ZN4swagISt4pairIN7atcoder13static_modintILi998244353ELPv0EEES4_EXtlN2opMUlS5_S5_E_EEEXtlN1eMUlvE_EEEE11_pushbottomES5_, symObjAddr: 0x7184, symBinAddr: 0x100008290, symSize: 0x70 }
  - { offsetInCU: 0x4F2A1, offset: 0x4F2A1, size: 0x8, addend: 0x0, symName: __ZNSt11_Deque_baseISt4pairIN7atcoder13static_modintILi998244353ELPv0EEES4_ESaIS5_EE19_M_get_Tp_allocatorEv, symObjAddr: 0x7150, symBinAddr: 0x10000825C, symSize: 0x14 }
  - { offsetInCU: 0x4F2A9, offset: 0x4F2A9, size: 0x8, addend: 0x0, symName: __ZNSt5dequeISt4pairIN7atcoder13static_modintILi998244353ELPv0EEES4_ESaIS5_EE15_M_destroy_dataESt15_Deque_iteratorIS5_RS5_PS5_ESB_RKS6_, symObjAddr: 0x7164, symBinAddr: 0x100008270, symSize: 0x20 }
  - { offsetInCU: 0x4F2CC, offset: 0x4F2CC, size: 0x8, addend: 0x0, symName: __ZNSt5dequeISt4pairIN7atcoder13static_modintILi998244353ELPv0EEES4_ESaIS5_EE3endEv, symObjAddr: 0x7118, symBinAddr: 0x100008224, symSize: 0x38 }
  - { offsetInCU: 0x4F2D4, offset: 0x4F2D4, size: 0x8, addend: 0x0, symName: __ZNSt11_Deque_baseISt4pairIN7atcoder13static_modintILi998244353ELPv0EEES4_ESaIS5_EE19_M_get_Tp_allocatorEv, symObjAddr: 0x7150, symBinAddr: 0x10000825C, symSize: 0x14 }
  - { offsetInCU: 0x4F2F7, offset: 0x4F2F7, size: 0x8, addend: 0x0, symName: __ZNSt5dequeISt4pairIN7atcoder13static_modintILi998244353ELPv0EEES4_ESaIS5_EE5beginEv, symObjAddr: 0x70E0, symBinAddr: 0x1000081EC, symSize: 0x38 }
  - { offsetInCU: 0x4F2FF, offset: 0x4F2FF, size: 0x8, addend: 0x0, symName: __ZNSt5dequeISt4pairIN7atcoder13static_modintILi998244353ELPv0EEES4_ESaIS5_EE3endEv, symObjAddr: 0x7118, symBinAddr: 0x100008224, symSize: 0x38 }
  - { offsetInCU: 0x4F39C, offset: 0x4F39C, size: 0x8, addend: 0x0, symName: __ZNSt11_Deque_baseISt4pairIN7atcoder13static_modintILi998244353ELPv0EEES4_ESaIS5_EED2Ev, symObjAddr: 0x7074, symBinAddr: 0x100008180, symSize: 0x6C }
  - { offsetInCU: 0x4F3A4, offset: 0x4F3A4, size: 0x8, addend: 0x0, symName: __ZNSt5dequeISt4pairIN7atcoder13static_modintILi998244353ELPv0EEES4_ESaIS5_EE5beginEv, symObjAddr: 0x70E0, symBinAddr: 0x1000081EC, symSize: 0x38 }
  - { offsetInCU: 0x4F3F9, offset: 0x4F3F9, size: 0x8, addend: 0x0, symName: __ZNSt11_Deque_baseISt4pairIN7atcoder13static_modintILi998244353ELPv0EEES4_ESaIS5_EE11_Deque_implD1Ev, symObjAddr: 0x7054, symBinAddr: 0x100008160, symSize: 0x20 }
  - { offsetInCU: 0x4F401, offset: 0x4F401, size: 0x8, addend: 0x0, symName: __ZNSt11_Deque_baseISt4pairIN7atcoder13static_modintILi998244353ELPv0EEES4_ESaIS5_EED2Ev, symObjAddr: 0x7074, symBinAddr: 0x100008180, symSize: 0x6C }
  - { offsetInCU: 0x4F3E2, offset: 0x4F3E2, size: 0x8, addend: 0x0, symName: __ZNSt5stackISt4pairIN7atcoder13static_modintILi998244353ELPv0EEES4_ESt5dequeIS5_SaIS5_EEE4pushEOS5_, symObjAddr: 0x7018, symBinAddr: 0x100008124, symSize: 0x3C }
  - { offsetInCU: 0x4F3EA, offset: 0x4F3EA, size: 0x8, addend: 0x0, symName: __ZNSt11_Deque_baseISt4pairIN7atcoder13static_modintILi998244353ELPv0EEES4_ESaIS5_EE11_Deque_implD1Ev, symObjAddr: 0x7054, symBinAddr: 0x100008160, symSize: 0x20 }
  - { offsetInCU: 0x4F4A9, offset: 0x4F4A9, size: 0x8, addend: 0x0, symName: __ZNSt5stackISt4pairIN7atcoder13static_modintILi998244353ELPv0EEES4_ESt5dequeIS5_SaIS5_EEEC1IS8_vEEv, symObjAddr: 0x6FE4, symBinAddr: 0x1000080F0, symSize: 0x34 }
  - { offsetInCU: 0x4F4B1, offset: 0x4F4B1, size: 0x8, addend: 0x0, symName: __ZNSt5stackISt4pairIN7atcoder13static_modintILi998244353ELPv0EEES4_ESt5dequeIS5_SaIS5_EEE4pushEOS5_, symObjAddr: 0x7018, symBinAddr: 0x100008124, symSize: 0x3C }
  - { offsetInCU: 0x4F4E7, offset: 0x4F4E7, size: 0x8, addend: 0x0, symName: __ZNSt5dequeISt4pairIN7atcoder13static_modintILi998244353ELPv0EEES4_ESaIS5_EEC1Ev, symObjAddr: 0x6FC4, symBinAddr: 0x1000080D0, symSize: 0x20 }
  - { offsetInCU: 0x4F4EF, offset: 0x4F4EF, size: 0x8, addend: 0x0, symName: __ZNSt5stackISt4pairIN7atcoder13static_modintILi998244353ELPv0EEES4_ESt5dequeIS5_SaIS5_EEEC1IS8_vEEv, symObjAddr: 0x6FE4, symBinAddr: 0x1000080F0, symSize: 0x34 }
  - { offsetInCU: 0x4F539, offset: 0x4F539, size: 0x8, addend: 0x0, symName: __ZN7atcoder13static_modintILi998244353ELPv0EEC1IiLS1_0EEET_, symObjAddr: 0x6F54, symBinAddr: 0x100008060, symSize: 0x70 }
  - { offsetInCU: 0x4F541, offset: 0x4F541, size: 0x8, addend: 0x0, symName: __ZNSt5dequeISt4pairIN7atcoder13static_modintILi998244353ELPv0EEES4_ESaIS5_EEC1Ev, symObjAddr: 0x6FC4, symBinAddr: 0x1000080D0, symSize: 0x20 }
  - { offsetInCU: 0x4F56E, offset: 0x4F56E, size: 0x8, addend: 0x0, symName: __ZSt7forwardIN7atcoder13static_modintILi998244353ELPv0EEEEOT_RNSt16remove_referenceIS4_E4typeE, symObjAddr: 0x6F40, symBinAddr: 0x10000804C, symSize: 0x14 }
  - { offsetInCU: 0x4F576, offset: 0x4F576, size: 0x8, addend: 0x0, symName: __ZN7atcoder13static_modintILi998244353ELPv0EEC1IiLS1_0EEET_, symObjAddr: 0x6F54, symBinAddr: 0x100008060, symSize: 0x70 }
  - { offsetInCU: 0x4F5A4, offset: 0x4F5A4, size: 0x8, addend: 0x0, symName: __ZN7atcoder13static_modintILi998244353ELPv0EEpLERKS2_, symObjAddr: 0x6EC0, symBinAddr: 0x100007FCC, symSize: 0x80 }
  - { offsetInCU: 0x4F5AC, offset: 0x4F5AC, size: 0x8, addend: 0x0, symName: __ZSt7forwardIN7atcoder13static_modintILi998244353ELPv0EEEEOT_RNSt16remove_referenceIS4_E4typeE, symObjAddr: 0x6F40, symBinAddr: 0x10000804C, symSize: 0x14 }
  - { offsetInCU: 0x4F5DF, offset: 0x4F5DF, size: 0x8, addend: 0x0, symName: __ZN7atcoder13static_modintILi998244353ELPv0EEmLERKS2_, symObjAddr: 0x6E58, symBinAddr: 0x100007F64, symSize: 0x68 }
  - { offsetInCU: 0x4F5E7, offset: 0x4F5E7, size: 0x8, addend: 0x0, symName: __ZN7atcoder13static_modintILi998244353ELPv0EEpLERKS2_, symObjAddr: 0x6EC0, symBinAddr: 0x100007FCC, symSize: 0x80 }
  - { offsetInCU: 0x4F627, offset: 0x4F627, size: 0x8, addend: 0x0, symName: __ZN7atcoder13static_modintILi998244353ELPv0EE4umodEv, symObjAddr: 0x6E4C, symBinAddr: 0x100007F58, symSize: 0xC }
  - { offsetInCU: 0x4F62F, offset: 0x4F62F, size: 0x8, addend: 0x0, symName: __ZN7atcoder13static_modintILi998244353ELPv0EEmLERKS2_, symObjAddr: 0x6E58, symBinAddr: 0x100007F64, symSize: 0x68 }
  - { offsetInCU: 0x4F642, offset: 0x4F642, size: 0x8, addend: 0x0, symName: __ZNSt6vectorIbSaIbEE13_M_initializeEm, symObjAddr: 0x6D94, symBinAddr: 0x100007EA0, symSize: 0xB8 }
  - { offsetInCU: 0x4F64A, offset: 0x4F64A, size: 0x8, addend: 0x0, symName: __ZN7atcoder13static_modintILi998244353ELPv0EE4umodEv, symObjAddr: 0x6E4C, symBinAddr: 0x100007F58, symSize: 0xC }
  - { offsetInCU: 0x4F6FC, offset: 0x4F6FC, size: 0x8, addend: 0x0, symName: __ZNSt13_Bvector_baseISaIbEEC2ERKS0_, symObjAddr: 0x6D48, symBinAddr: 0x100007E54, symSize: 0x4C }
  - { offsetInCU: 0x4F704, offset: 0x4F704, size: 0x8, addend: 0x0, symName: __ZNSt6vectorIbSaIbEE13_M_initializeEm, symObjAddr: 0x6D94, symBinAddr: 0x100007EA0, symSize: 0xB8 }
  - { offsetInCU: 0x4F779, offset: 0x4F779, size: 0x8, addend: 0x0, symName: __ZNSt6vectorIbSaIbEE5beginEv, symObjAddr: 0x6CF8, symBinAddr: 0x100007E04, symSize: 0x50 }
  - { offsetInCU: 0x4F781, offset: 0x4F781, size: 0x8, addend: 0x0, symName: __ZNSt13_Bvector_baseISaIbEEC2ERKS0_, symObjAddr: 0x6D48, symBinAddr: 0x100007E54, symSize: 0x4C }
  - { offsetInCU: 0x4F806, offset: 0x4F806, size: 0x8, addend: 0x0, symName: __ZNSt6vectorIbSaIbEEC1EmRKbRKS0_, symObjAddr: 0x6C8C, symBinAddr: 0x100007D98, symSize: 0x6C }
  - { offsetInCU: 0x4F80E, offset: 0x4F80E, size: 0x8, addend: 0x0, symName: __ZNSt6vectorIbSaIbEE5beginEv, symObjAddr: 0x6CF8, symBinAddr: 0x100007E04, symSize: 0x50 }
  - { offsetInCU: 0x4F841, offset: 0x4F841, size: 0x8, addend: 0x0, symName: __ZNSt13_Bvector_baseISaIbEE13_M_deallocateEv, symObjAddr: 0x6BC4, symBinAddr: 0x100007CD0, symSize: 0xC8 }
  - { offsetInCU: 0x4F849, offset: 0x4F849, size: 0x8, addend: 0x0, symName: __ZNSt6vectorIbSaIbEEC1EmRKbRKS0_, symObjAddr: 0x6C8C, symBinAddr: 0x100007D98, symSize: 0x6C }
  - { offsetInCU: 0x4F8FD, offset: 0x4F8FD, size: 0x8, addend: 0x0, symName: __ZNKSt13_Bvector_baseISaIbEE13_Bvector_impl11_M_end_addrEv, symObjAddr: 0x6B84, symBinAddr: 0x100007C90, symSize: 0x40 }
  - { offsetInCU: 0x4F905, offset: 0x4F905, size: 0x8, addend: 0x0, symName: __ZNSt13_Bvector_baseISaIbEE13_M_deallocateEv, symObjAddr: 0x6BC4, symBinAddr: 0x100007CD0, symSize: 0xC8 }
  - { offsetInCU: 0x4F973, offset: 0x4F973, size: 0x8, addend: 0x0, symName: __ZNSt13_Bvector_baseISaIbEE18_Bvector_impl_dataC1Ev, symObjAddr: 0x6B50, symBinAddr: 0x100007C5C, symSize: 0x34 }
  - { offsetInCU: 0x4F97B, offset: 0x4F97B, size: 0x8, addend: 0x0, symName: __ZNKSt13_Bvector_baseISaIbEE13_Bvector_impl11_M_end_addrEv, symObjAddr: 0x6B84, symBinAddr: 0x100007C90, symSize: 0x40 }
  - { offsetInCU: 0x4F99D, offset: 0x4F99D, size: 0x8, addend: 0x0, symName: __ZNSt13_Bvector_baseISaIbEE18_Bvector_impl_dataC2Ev, symObjAddr: 0x6B1C, symBinAddr: 0x100007C28, symSize: 0x34 }
  - { offsetInCU: 0x4F9A5, offset: 0x4F9A5, size: 0x8, addend: 0x0, symName: __ZNSt13_Bvector_baseISaIbEE18_Bvector_impl_dataC1Ev, symObjAddr: 0x6B50, symBinAddr: 0x100007C5C, symSize: 0x34 }
  - { offsetInCU: 0x4F98F, offset: 0x4F98F, size: 0x8, addend: 0x0, symName: __ZSt4copyIN9__gnu_cxx17__normal_iteratorIPiSt6vectorIiSaIiEEEES6_ET0_T_S8_S7_, symObjAddr: 0x6AD4, symBinAddr: 0x100007BE0, symSize: 0x48 }
  - { offsetInCU: 0x4F997, offset: 0x4F997, size: 0x8, addend: 0x0, symName: __ZNSt13_Bvector_baseISaIbEE18_Bvector_impl_dataC2Ev, symObjAddr: 0x6B1C, symBinAddr: 0x100007C28, symSize: 0x34 }
  - { offsetInCU: 0x4F9ED, offset: 0x4F9ED, size: 0x8, addend: 0x0, symName: __ZSt4fillIN9__gnu_cxx17__normal_iteratorIPiSt6vectorIiSaIiEEEEiEvT_S7_RKT0_, symObjAddr: 0x6AA4, symBinAddr: 0x100007BB0, symSize: 0x30 }
  - { offsetInCU: 0x4F9F5, offset: 0x4F9F5, size: 0x8, addend: 0x0, symName: __ZSt4copyIN9__gnu_cxx17__normal_iteratorIPiSt6vectorIiSaIiEEEES6_ET0_T_S8_S7_, symObjAddr: 0x6AD4, symBinAddr: 0x100007BE0, symSize: 0x48 }
  - { offsetInCU: 0x4FAB6, offset: 0x4FAB6, size: 0x8, addend: 0x0, symName: __ZNSt6vectorIiSaIiEEC1ESt16initializer_listIiERKS0_, symObjAddr: 0x6A34, symBinAddr: 0x100007B40, symSize: 0x70 }
  - { offsetInCU: 0x4FABE, offset: 0x4FABE, size: 0x8, addend: 0x0, symName: __ZSt4fillIN9__gnu_cxx17__normal_iteratorIPiSt6vectorIiSaIiEEEEiEvT_S7_RKT0_, symObjAddr: 0x6AA4, symBinAddr: 0x100007BB0, symSize: 0x30 }
  - { offsetInCU: 0x4FB22, offset: 0x4FB22, size: 0x8, addend: 0x0, symName: __ZN9__gnu_cxx17__normal_iteratorIPKiSt6vectorIiSaIiEEEC1ERKS2_, symObjAddr: 0x6A0C, symBinAddr: 0x100007B18, symSize: 0x28 }
  - { offsetInCU: 0x4FB2A, offset: 0x4FB2A, size: 0x8, addend: 0x0, symName: __ZNSt6vectorIiSaIiEEC1ESt16initializer_listIiERKS0_, symObjAddr: 0x6A34, symBinAddr: 0x100007B40, symSize: 0x70 }
  - { offsetInCU: 0x4FB16, offset: 0x4FB16, size: 0x8, addend: 0x0, symName: __ZNSt6vectorIiSaIiEE4swapERS1_, symObjAddr: 0x694C, symBinAddr: 0x100007A58, symSize: 0xC0 }
  - { offsetInCU: 0x4FB1E, offset: 0x4FB1E, size: 0x8, addend: 0x0, symName: __ZN9__gnu_cxx17__normal_iteratorIPKiSt6vectorIiSaIiEEEC1ERKS2_, symObjAddr: 0x6A0C, symBinAddr: 0x100007B18, symSize: 0x28 }
  - { offsetInCU: 0x4FBD4, offset: 0x4FBD4, size: 0x8, addend: 0x0, symName: __ZSt6__sortIN9__gnu_cxx17__normal_iteratorIPiSt6vectorIiSaIiEEEENS0_5__ops15_Iter_comp_iterIZN7atcoder8internal11sa_doublingERKS5_EUliiE_EEEvT_SF_T0_, symObjAddr: 0x6890, symBinAddr: 0x10000799C, symSize: 0xBC }
  - { offsetInCU: 0x4FBDC, offset: 0x4FBDC, size: 0x8, addend: 0x0, symName: __ZNSt6vectorIiSaIiEE4swapERS1_, symObjAddr: 0x694C, symBinAddr: 0x100007A58, symSize: 0xC0 }
  - { offsetInCU: 0x4FC32, offset: 0x4FC32, size: 0x8, addend: 0x0, symName: __ZN9__gnu_cxx5__ops16__iter_comp_iterIZN7atcoder8internal11sa_doublingERKSt6vectorIiSaIiEEEUliiE_EENS0_15_Iter_comp_iterIT_EESB_, symObjAddr: 0x6840, symBinAddr: 0x10000794C, symSize: 0x50 }
  - { offsetInCU: 0x4FC3A, offset: 0x4FC3A, size: 0x8, addend: 0x0, symName: __ZSt6__sortIN9__gnu_cxx17__normal_iteratorIPiSt6vectorIiSaIiEEEENS0_5__ops15_Iter_comp_iterIZN7atcoder8internal11sa_doublingERKS5_EUliiE_EEEvT_SF_T0_, symObjAddr: 0x6890, symBinAddr: 0x10000799C, symSize: 0xBC }
  - { offsetInCU: 0x4FC64, offset: 0x4FC64, size: 0x8, addend: 0x0, symName: __ZSt22__uninitialized_copy_aIN9__gnu_cxx17__normal_iteratorIPKiSt6vectorIiSaIiEEEEPiiET0_T_SA_S9_RSaIT1_E, symObjAddr: 0x67E4, symBinAddr: 0x1000078F0, symSize: 0x5C }
  - { offsetInCU: 0x4FC6C, offset: 0x4FC6C, size: 0x8, addend: 0x0, symName: __ZN9__gnu_cxx5__ops16__iter_comp_iterIZN7atcoder8internal11sa_doublingERKSt6vectorIiSaIiEEEUliiE_EENS0_15_Iter_comp_iterIT_EESB_, symObjAddr: 0x6840, symBinAddr: 0x10000794C, symSize: 0x50 }
  - { offsetInCU: 0x4FCED, offset: 0x4FCED, size: 0x8, addend: 0x0, symName: __ZNKSt12_Vector_baseIiSaIiEE19_M_get_Tp_allocatorEv, symObjAddr: 0x67D0, symBinAddr: 0x1000078DC, symSize: 0x14 }
  - { offsetInCU: 0x4FCF5, offset: 0x4FCF5, size: 0x8, addend: 0x0, symName: __ZSt22__uninitialized_copy_aIN9__gnu_cxx17__normal_iteratorIPKiSt6vectorIiSaIiEEEEPiiET0_T_SA_S9_RSaIT1_E, symObjAddr: 0x67E4, symBinAddr: 0x1000078F0, symSize: 0x5C }
  - { offsetInCU: 0x4FD72, offset: 0x4FD72, size: 0x8, addend: 0x0, symName: __ZNSt12_Vector_baseIiSaIiEE17_Vector_impl_dataC2EOS2_, symObjAddr: 0x6760, symBinAddr: 0x10000786C, symSize: 0x70 }
  - { offsetInCU: 0x4FD7A, offset: 0x4FD7A, size: 0x8, addend: 0x0, symName: __ZNKSt12_Vector_baseIiSaIiEE19_M_get_Tp_allocatorEv, symObjAddr: 0x67D0, symBinAddr: 0x1000078DC, symSize: 0x14 }
  - { offsetInCU: 0x4FD9B, offset: 0x4FD9B, size: 0x8, addend: 0x0, symName: __ZSt4moveIRNSt12_Vector_baseIiSaIiEE12_Vector_implEEONSt16remove_referenceIT_E4typeEOS6_, symObjAddr: 0x674C, symBinAddr: 0x100007858, symSize: 0x14 }
  - { offsetInCU: 0x4FDA3, offset: 0x4FDA3, size: 0x8, addend: 0x0, symName: __ZNSt12_Vector_baseIiSaIiEE17_Vector_impl_dataC2EOS2_, symObjAddr: 0x6760, symBinAddr: 0x10000786C, symSize: 0x70 }
  - { offsetInCU: 0x4FDCD, offset: 0x4FDCD, size: 0x8, addend: 0x0, symName: __ZSt6__sortIN9__gnu_cxx17__normal_iteratorIPiSt6vectorIiSaIiEEEENS0_5__ops15_Iter_comp_iterIZN7atcoder8internal8sa_naiveERKS5_EUliiE_EEEvT_SF_T0_, symObjAddr: 0x66D0, symBinAddr: 0x1000077DC, symSize: 0x7C }
  - { offsetInCU: 0x4FDD5, offset: 0x4FDD5, size: 0x8, addend: 0x0, symName: __ZSt4moveIRNSt12_Vector_baseIiSaIiEE12_Vector_implEEONSt16remove_referenceIT_E4typeEOS6_, symObjAddr: 0x674C, symBinAddr: 0x100007858, symSize: 0x14 }
  - { offsetInCU: 0x4FE2B, offset: 0x4FE2B, size: 0x8, addend: 0x0, symName: __ZN9__gnu_cxx5__ops16__iter_comp_iterIZN7atcoder8internal8sa_naiveERKSt6vectorIiSaIiEEEUliiE_EENS0_15_Iter_comp_iterIT_EESB_, symObjAddr: 0x66A0, symBinAddr: 0x1000077AC, symSize: 0x30 }
  - { offsetInCU: 0x4FE33, offset: 0x4FE33, size: 0x8, addend: 0x0, symName: __ZSt6__sortIN9__gnu_cxx17__normal_iteratorIPiSt6vectorIiSaIiEEEENS0_5__ops15_Iter_comp_iterIZN7atcoder8internal8sa_naiveERKS5_EUliiE_EEEvT_SF_T0_, symObjAddr: 0x66D0, symBinAddr: 0x1000077DC, symSize: 0x7C }
  - { offsetInCU: 0x4FE63, offset: 0x4FE63, size: 0x8, addend: 0x0, symName: __ZSt7forwardIRiEOT_RNSt16remove_referenceIS1_E4typeE, symObjAddr: 0x668C, symBinAddr: 0x100007798, symSize: 0x14 }
  - { offsetInCU: 0x4FE6B, offset: 0x4FE6B, size: 0x8, addend: 0x0, symName: __ZN9__gnu_cxx5__ops16__iter_comp_iterIZN7atcoder8internal8sa_naiveERKSt6vectorIiSaIiEEEUliiE_EENS0_15_Iter_comp_iterIT_EESB_, symObjAddr: 0x66A0, symBinAddr: 0x1000077AC, symSize: 0x30 }
  - { offsetInCU: 0x4FEFC, offset: 0x4FEFC, size: 0x8, addend: 0x0, symName: __ZN9__gnu_cxx17__normal_iteratorIPiSt6vectorIiSaIiEEEC1ERKS1_, symObjAddr: 0x6664, symBinAddr: 0x100007770, symSize: 0x28 }
  - { offsetInCU: 0x4FF04, offset: 0x4FF04, size: 0x8, addend: 0x0, symName: __ZSt7forwardIRiEOT_RNSt16remove_referenceIS1_E4typeE, symObjAddr: 0x668C, symBinAddr: 0x100007798, symSize: 0x14 }
  - { offsetInCU: 0x4FEED, offset: 0x4FEED, size: 0x8, addend: 0x0, symName: __ZNSt11_Tuple_implILm1EJRxEE7_M_headERS1_, symObjAddr: 0x6648, symBinAddr: 0x100007754, symSize: 0x1C }
  - { offsetInCU: 0x4FEF5, offset: 0x4FEF5, size: 0x8, addend: 0x0, symName: __ZN9__gnu_cxx17__normal_iteratorIPiSt6vectorIiSaIiEEEC1ERKS1_, symObjAddr: 0x6664, symBinAddr: 0x100007770, symSize: 0x28 }
  - { offsetInCU: 0x4FF17, offset: 0x4FF17, size: 0x8, addend: 0x0, symName: __ZNSt11_Tuple_implILm0EJRxS0_EE7_M_tailERS1_, symObjAddr: 0x6634, symBinAddr: 0x100007740, symSize: 0x14 }
  - { offsetInCU: 0x4FF1F, offset: 0x4FF1F, size: 0x8, addend: 0x0, symName: __ZNSt11_Tuple_implILm1EJRxEE7_M_headERS1_, symObjAddr: 0x6648, symBinAddr: 0x100007754, symSize: 0x1C }
  - { offsetInCU: 0x4FF47, offset: 0x4FF47, size: 0x8, addend: 0x0, symName: __ZSt7forwardIxEOT_RNSt16remove_referenceIS0_E4typeE, symObjAddr: 0x6620, symBinAddr: 0x10000772C, symSize: 0x14 }
  - { offsetInCU: 0x4FF4F, offset: 0x4FF4F, size: 0x8, addend: 0x0, symName: __ZNSt11_Tuple_implILm0EJRxS0_EE7_M_tailERS1_, symObjAddr: 0x6634, symBinAddr: 0x100007740, symSize: 0x14 }
  - { offsetInCU: 0x4FF79, offset: 0x4FF79, size: 0x8, addend: 0x0, symName: __ZNSt11_Tuple_implILm0EJRxS0_EE7_M_headERS1_, symObjAddr: 0x6600, symBinAddr: 0x10000770C, symSize: 0x20 }
  - { offsetInCU: 0x4FF81, offset: 0x4FF81, size: 0x8, addend: 0x0, symName: __ZSt7forwardIxEOT_RNSt16remove_referenceIS0_E4typeE, symObjAddr: 0x6620, symBinAddr: 0x10000772C, symSize: 0x14 }
  - { offsetInCU: 0x5000D, offset: 0x5000D, size: 0x8, addend: 0x0, symName: __ZNSt5tupleIJRxS0_EEC1ILb1ELb1EEES0_S0_, symObjAddr: 0x65D0, symBinAddr: 0x1000076DC, symSize: 0x30 }
  - { offsetInCU: 0x50015, offset: 0x50015, size: 0x8, addend: 0x0, symName: __ZNSt11_Tuple_implILm0EJRxS0_EE7_M_headERS1_, symObjAddr: 0x6600, symBinAddr: 0x10000770C, symSize: 0x20 }
  - { offsetInCU: 0x5002E, offset: 0x5002E, size: 0x8, addend: 0x0, symName: __ZSt4moveIRxEONSt16remove_referenceIT_E4typeEOS2_, symObjAddr: 0x65BC, symBinAddr: 0x1000076C8, symSize: 0x14 }
  - { offsetInCU: 0x50036, offset: 0x50036, size: 0x8, addend: 0x0, symName: __ZNSt5tupleIJRxS0_EEC1ILb1ELb1EEES0_S0_, symObjAddr: 0x65D0, symBinAddr: 0x1000076DC, symSize: 0x30 }
  - { offsetInCU: 0x50064, offset: 0x50064, size: 0x8, addend: 0x0, symName: __ZNSt6vectorIiSaIiEE17_M_realloc_insertIJRKiEEEvN9__gnu_cxx17__normal_iteratorIPiS1_EEDpOT_, symObjAddr: 0x6430, symBinAddr: 0x10000753C, symSize: 0x18C }
  - { offsetInCU: 0x5006C, offset: 0x5006C, size: 0x8, addend: 0x0, symName: __ZSt4moveIRxEONSt16remove_referenceIT_E4typeEOS2_, symObjAddr: 0x65BC, symBinAddr: 0x1000076C8, symSize: 0x14 }
  - { offsetInCU: 0x50157, offset: 0x50157, size: 0x8, addend: 0x0, symName: __ZN9__gnu_cxxmiIPiSt6vectorIiSaIiEEEENS_17__normal_iteratorIT_T0_E15difference_typeERKS8_SB_, symObjAddr: 0x63F0, symBinAddr: 0x1000074FC, symSize: 0x40 }
  - { offsetInCU: 0x5015F, offset: 0x5015F, size: 0x8, addend: 0x0, symName: __ZNSt6vectorIiSaIiEE17_M_realloc_insertIJRKiEEEvN9__gnu_cxx17__normal_iteratorIPiS1_EEDpOT_, symObjAddr: 0x6430, symBinAddr: 0x10000753C, symSize: 0x18C }
  - { offsetInCU: 0x501A8, offset: 0x501A8, size: 0x8, addend: 0x0, symName: __ZNKSt6vectorIiSaIiEE12_M_check_lenEmPKc, symObjAddr: 0x6320, symBinAddr: 0x10000742C, symSize: 0xD0 }
  - { offsetInCU: 0x501B0, offset: 0x501B0, size: 0x8, addend: 0x0, symName: __ZN9__gnu_cxxmiIPiSt6vectorIiSaIiEEEENS_17__normal_iteratorIT_T0_E15difference_typeERKS8_SB_, symObjAddr: 0x63F0, symBinAddr: 0x1000074FC, symSize: 0x40 }
  - { offsetInCU: 0x50246, offset: 0x50246, size: 0x8, addend: 0x0, symName: __ZNSt6vectorIiSaIiEE11_S_relocateEPiS2_S2_RS0_, symObjAddr: 0x62EC, symBinAddr: 0x1000073F8, symSize: 0x34 }
  - { offsetInCU: 0x5024E, offset: 0x5024E, size: 0x8, addend: 0x0, symName: __ZNKSt6vectorIiSaIiEE12_M_check_lenEmPKc, symObjAddr: 0x6320, symBinAddr: 0x10000742C, symSize: 0xD0 }
  - { offsetInCU: 0x502A7, offset: 0x502A7, size: 0x8, addend: 0x0, symName: __ZNSt12_Vector_baseIiSaIiEE11_M_allocateEm, symObjAddr: 0x6224, symBinAddr: 0x100007330, symSize: 0xC8 }
  - { offsetInCU: 0x502AF, offset: 0x502AF, size: 0x8, addend: 0x0, symName: __ZNSt6vectorIiSaIiEE11_S_relocateEPiS2_S2_RS0_, symObjAddr: 0x62EC, symBinAddr: 0x1000073F8, symSize: 0x34 }
  - { offsetInCU: 0x5033D, offset: 0x5033D, size: 0x8, addend: 0x0, symName: __ZNKSt6vectorIiSaIiEE8capacityEv, symObjAddr: 0x61FC, symBinAddr: 0x100007308, symSize: 0x28 }
  - { offsetInCU: 0x50345, offset: 0x50345, size: 0x8, addend: 0x0, symName: __ZNSt12_Vector_baseIiSaIiEE11_M_allocateEm, symObjAddr: 0x6224, symBinAddr: 0x100007330, symSize: 0xC8 }
  - { offsetInCU: 0x50368, offset: 0x50368, size: 0x8, addend: 0x0, symName: __ZNKSt6vectorIiSaIiEE8max_sizeEv, symObjAddr: 0x61DC, symBinAddr: 0x1000072E8, symSize: 0x20 }
  - { offsetInCU: 0x50370, offset: 0x50370, size: 0x8, addend: 0x0, symName: __ZNKSt6vectorIiSaIiEE8capacityEv, symObjAddr: 0x61FC, symBinAddr: 0x100007308, symSize: 0x28 }
  - { offsetInCU: 0x50393, offset: 0x50393, size: 0x8, addend: 0x0, symName: __ZNSt6vectorIiSaIiEE21_M_default_initializeEm, symObjAddr: 0x618C, symBinAddr: 0x100007298, symSize: 0x50 }
  - { offsetInCU: 0x5039B, offset: 0x5039B, size: 0x8, addend: 0x0, symName: __ZNKSt6vectorIiSaIiEE8max_sizeEv, symObjAddr: 0x61DC, symBinAddr: 0x1000072E8, symSize: 0x20 }
  - { offsetInCU: 0x503D1, offset: 0x503D1, size: 0x8, addend: 0x0, symName: __ZSt4moveIRiEONSt16remove_referenceIT_E4typeEOS2_, symObjAddr: 0x6178, symBinAddr: 0x100007284, symSize: 0x14 }
  - { offsetInCU: 0x503D9, offset: 0x503D9, size: 0x8, addend: 0x0, symName: __ZNSt6vectorIiSaIiEE21_M_default_initializeEm, symObjAddr: 0x618C, symBinAddr: 0x100007298, symSize: 0x50 }
  - { offsetInCU: 0x50407, offset: 0x50407, size: 0x8, addend: 0x0, symName: __ZNSt6vectorIiSaIiEE18_M_fill_initializeEmRKi, symObjAddr: 0x6120, symBinAddr: 0x10000722C, symSize: 0x58 }
  - { offsetInCU: 0x5040F, offset: 0x5040F, size: 0x8, addend: 0x0, symName: __ZSt4moveIRiEONSt16remove_referenceIT_E4typeEOS2_, symObjAddr: 0x6178, symBinAddr: 0x100007284, symSize: 0x14 }
  - { offsetInCU: 0x504AC, offset: 0x504AC, size: 0x8, addend: 0x0, symName: __ZNSt12_Vector_baseIiSaIiEEC2EmRKS0_, symObjAddr: 0x60CC, symBinAddr: 0x1000071D8, symSize: 0x54 }
  - { offsetInCU: 0x504B4, offset: 0x504B4, size: 0x8, addend: 0x0, symName: __ZNSt6vectorIiSaIiEE18_M_fill_initializeEmRKi, symObjAddr: 0x6120, symBinAddr: 0x10000722C, symSize: 0x58 }
  - { offsetInCU: 0x504BF, offset: 0x504BF, size: 0x8, addend: 0x0, symName: __ZNSt6vectorIiSaIiEE17_S_check_init_lenEmRKS0_, symObjAddr: 0x6058, symBinAddr: 0x100007164, symSize: 0x74 }
  - { offsetInCU: 0x504C7, offset: 0x504C7, size: 0x8, addend: 0x0, symName: __ZNSt12_Vector_baseIiSaIiEEC2EmRKS0_, symObjAddr: 0x60CC, symBinAddr: 0x1000071D8, symSize: 0x54 }
  - { offsetInCU: 0x505B0, offset: 0x505B0, size: 0x8, addend: 0x0, symName: __ZNSt12_Vector_baseIiSaIiEE19_M_get_Tp_allocatorEv, symObjAddr: 0x6044, symBinAddr: 0x100007150, symSize: 0x14 }
  - { offsetInCU: 0x505B8, offset: 0x505B8, size: 0x8, addend: 0x0, symName: __ZNSt6vectorIiSaIiEE17_S_check_init_lenEmRKS0_, symObjAddr: 0x6058, symBinAddr: 0x100007164, symSize: 0x74 }
  - { offsetInCU: 0x505DB, offset: 0x505DB, size: 0x8, addend: 0x0, symName: __ZNSt12_Vector_baseIiSaIiEE13_M_deallocateEPim, symObjAddr: 0x5FB4, symBinAddr: 0x1000070C0, symSize: 0x90 }
  - { offsetInCU: 0x505E3, offset: 0x505E3, size: 0x8, addend: 0x0, symName: __ZNSt12_Vector_baseIiSaIiEE19_M_get_Tp_allocatorEv, symObjAddr: 0x6044, symBinAddr: 0x100007150, symSize: 0x14 }
  - { offsetInCU: 0x506EF, offset: 0x506EF, size: 0x8, addend: 0x0, symName: __ZNSt12_Vector_baseIxSaIxEE17_Vector_impl_dataC2EOS2_, symObjAddr: 0x5F44, symBinAddr: 0x100007050, symSize: 0x70 }
  - { offsetInCU: 0x506F7, offset: 0x506F7, size: 0x8, addend: 0x0, symName: __ZNSt12_Vector_baseIiSaIiEE13_M_deallocateEPim, symObjAddr: 0x5FB4, symBinAddr: 0x1000070C0, symSize: 0x90 }
  - { offsetInCU: 0x50718, offset: 0x50718, size: 0x8, addend: 0x0, symName: __ZSt4moveIRNSt12_Vector_baseIxSaIxEE12_Vector_implEEONSt16remove_referenceIT_E4typeEOS6_, symObjAddr: 0x5F30, symBinAddr: 0x10000703C, symSize: 0x14 }
  - { offsetInCU: 0x50720, offset: 0x50720, size: 0x8, addend: 0x0, symName: __ZNSt12_Vector_baseIxSaIxEE17_Vector_impl_dataC2EOS2_, symObjAddr: 0x5F44, symBinAddr: 0x100007050, symSize: 0x70 }
  - { offsetInCU: 0x5074E, offset: 0x5074E, size: 0x8, addend: 0x0, symName: __ZNSt6vectorIxSaIxEE21_M_default_initializeEm, symObjAddr: 0x5EE0, symBinAddr: 0x100006FEC, symSize: 0x50 }
  - { offsetInCU: 0x50756, offset: 0x50756, size: 0x8, addend: 0x0, symName: __ZSt4moveIRNSt12_Vector_baseIxSaIxEE12_Vector_implEEONSt16remove_referenceIT_E4typeEOS6_, symObjAddr: 0x5F30, symBinAddr: 0x10000703C, symSize: 0x14 }
  - { offsetInCU: 0x507E2, offset: 0x507E2, size: 0x8, addend: 0x0, symName: __ZNSt12_Vector_baseIxSaIxEEC2EmRKS0_, symObjAddr: 0x5E8C, symBinAddr: 0x100006F98, symSize: 0x54 }
  - { offsetInCU: 0x507EA, offset: 0x507EA, size: 0x8, addend: 0x0, symName: __ZNSt6vectorIxSaIxEE21_M_default_initializeEm, symObjAddr: 0x5EE0, symBinAddr: 0x100006FEC, symSize: 0x50 }
  - { offsetInCU: 0x507F5, offset: 0x507F5, size: 0x8, addend: 0x0, symName: __ZNSt6vectorIxSaIxEE17_S_check_init_lenEmRKS0_, symObjAddr: 0x5E18, symBinAddr: 0x100006F24, symSize: 0x74 }
  - { offsetInCU: 0x507FD, offset: 0x507FD, size: 0x8, addend: 0x0, symName: __ZNSt12_Vector_baseIxSaIxEEC2EmRKS0_, symObjAddr: 0x5E8C, symBinAddr: 0x100006F98, symSize: 0x54 }
  - { offsetInCU: 0x508C2, offset: 0x508C2, size: 0x8, addend: 0x0, symName: __ZNK7atcoder13static_modintILi469762049ELPv0EE3valEv, symObjAddr: 0x5E00, symBinAddr: 0x100006F0C, symSize: 0x18 }
  - { offsetInCU: 0x508CA, offset: 0x508CA, size: 0x8, addend: 0x0, symName: __ZNSt6vectorIxSaIxEE17_S_check_init_lenEmRKS0_, symObjAddr: 0x5E18, symBinAddr: 0x100006F24, symSize: 0x74 }
  - { offsetInCU: 0x508E9, offset: 0x508E9, size: 0x8, addend: 0x0, symName: __ZN7atcoder11convolutionINS_13static_modintILi469762049ELPv0EEELS2_0EEESt6vectorIT_SaIS5_EEOS7_S8_, symObjAddr: 0x5C8C, symBinAddr: 0x100006D98, symSize: 0x174 }
  - { offsetInCU: 0x508F1, offset: 0x508F1, size: 0x8, addend: 0x0, symName: __ZNK7atcoder13static_modintILi469762049ELPv0EE3valEv, symObjAddr: 0x5E00, symBinAddr: 0x100006F0C, symSize: 0x18 }
  - { offsetInCU: 0x509E4, offset: 0x509E4, size: 0x8, addend: 0x0, symName: __ZNSt6vectorIN7atcoder13static_modintILi469762049ELPv0EEESaIS3_EEC1Ev, symObjAddr: 0x5C6C, symBinAddr: 0x100006D78, symSize: 0x20 }
  - { offsetInCU: 0x509EC, offset: 0x509EC, size: 0x8, addend: 0x0, symName: __ZN7atcoder11convolutionINS_13static_modintILi469762049ELPv0EEELS2_0EEESt6vectorIT_SaIS5_EEOS7_S8_, symObjAddr: 0x5C8C, symBinAddr: 0x100006D98, symSize: 0x174 }
  - { offsetInCU: 0x50A2C, offset: 0x50A2C, size: 0x8, addend: 0x0, symName: __ZNSt12_Vector_baseIN7atcoder13static_modintILi469762049ELPv0EEESaIS3_EEC2Ev, symObjAddr: 0x5C4C, symBinAddr: 0x100006D58, symSize: 0x20 }
  - { offsetInCU: 0x50A34, offset: 0x50A34, size: 0x8, addend: 0x0, symName: __ZNSt6vectorIN7atcoder13static_modintILi469762049ELPv0EEESaIS3_EEC1Ev, symObjAddr: 0x5C6C, symBinAddr: 0x100006D78, symSize: 0x20 }
  - { offsetInCU: 0x50A89, offset: 0x50A89, size: 0x8, addend: 0x0, symName: __ZNSt12_Vector_baseIN7atcoder13static_modintILi469762049ELPv0EEESaIS3_EE12_Vector_implD1Ev, symObjAddr: 0x5C2C, symBinAddr: 0x100006D38, symSize: 0x20 }
  - { offsetInCU: 0x50A91, offset: 0x50A91, size: 0x8, addend: 0x0, symName: __ZNSt12_Vector_baseIN7atcoder13static_modintILi469762049ELPv0EEESaIS3_EEC2Ev, symObjAddr: 0x5C4C, symBinAddr: 0x100006D58, symSize: 0x20 }
  - { offsetInCU: 0x50A7D, offset: 0x50A7D, size: 0x8, addend: 0x0, symName: __ZSt4moveIRSt6vectorIN7atcoder13static_modintILi469762049ELPv0EEESaIS4_EEEONSt16remove_referenceIT_E4typeEOS9_, symObjAddr: 0x5C18, symBinAddr: 0x100006D24, symSize: 0x14 }
  - { offsetInCU: 0x50A85, offset: 0x50A85, size: 0x8, addend: 0x0, symName: __ZNSt12_Vector_baseIN7atcoder13static_modintILi469762049ELPv0EEESaIS3_EE12_Vector_implD1Ev, symObjAddr: 0x5C2C, symBinAddr: 0x100006D38, symSize: 0x20 }
  - { offsetInCU: 0x50B2C, offset: 0x50B2C, size: 0x8, addend: 0x0, symName: __ZN7atcoder13static_modintILi469762049ELPv0EEC1IxLS1_0EEET_, symObjAddr: 0x5BB0, symBinAddr: 0x100006CBC, symSize: 0x68 }
  - { offsetInCU: 0x50B34, offset: 0x50B34, size: 0x8, addend: 0x0, symName: __ZSt4moveIRSt6vectorIN7atcoder13static_modintILi469762049ELPv0EEESaIS4_EEEONSt16remove_referenceIT_E4typeEOS9_, symObjAddr: 0x5C18, symBinAddr: 0x100006D24, symSize: 0x14 }
  - { offsetInCU: 0x50B56, offset: 0x50B56, size: 0x8, addend: 0x0, symName: __ZN7atcoder13static_modintILi469762049ELPv0EE4umodEv, symObjAddr: 0x5BA4, symBinAddr: 0x100006CB0, symSize: 0xC }
  - { offsetInCU: 0x50B5E, offset: 0x50B5E, size: 0x8, addend: 0x0, symName: __ZN7atcoder13static_modintILi469762049ELPv0EEC1IxLS1_0EEET_, symObjAddr: 0x5BB0, symBinAddr: 0x100006CBC, symSize: 0x68 }
  - { offsetInCU: 0x50B71, offset: 0x50B71, size: 0x8, addend: 0x0, symName: __ZNSt6vectorIN7atcoder13static_modintILi469762049ELPv0EEESaIS3_EEixEm, symObjAddr: 0x5B7C, symBinAddr: 0x100006C88, symSize: 0x28 }
  - { offsetInCU: 0x50B79, offset: 0x50B79, size: 0x8, addend: 0x0, symName: __ZN7atcoder13static_modintILi469762049ELPv0EE4umodEv, symObjAddr: 0x5BA4, symBinAddr: 0x100006CB0, symSize: 0xC }
  - { offsetInCU: 0x50C15, offset: 0x50C15, size: 0x8, addend: 0x0, symName: __ZNSt6vectorIN7atcoder13static_modintILi469762049ELPv0EEESaIS3_EED1Ev, symObjAddr: 0x5B20, symBinAddr: 0x100006C2C, symSize: 0x5C }
  - { offsetInCU: 0x50C1D, offset: 0x50C1D, size: 0x8, addend: 0x0, symName: __ZNSt6vectorIN7atcoder13static_modintILi469762049ELPv0EEESaIS3_EEixEm, symObjAddr: 0x5B7C, symBinAddr: 0x100006C88, symSize: 0x28 }
  - { offsetInCU: 0x50CAD, offset: 0x50CAD, size: 0x8, addend: 0x0, symName: __ZNSt6vectorIN7atcoder13static_modintILi469762049ELPv0EEESaIS3_EEC1EmRKS4_, symObjAddr: 0x5AB8, symBinAddr: 0x100006BC4, symSize: 0x68 }
  - { offsetInCU: 0x50CB5, offset: 0x50CB5, size: 0x8, addend: 0x0, symName: __ZNSt6vectorIN7atcoder13static_modintILi469762049ELPv0EEESaIS3_EED1Ev, symObjAddr: 0x5B20, symBinAddr: 0x100006C2C, symSize: 0x5C }
  - { offsetInCU: 0x50CD7, offset: 0x50CD7, size: 0x8, addend: 0x0, symName: __ZNK7atcoder13static_modintILi167772161ELPv0EE3valEv, symObjAddr: 0x5AA0, symBinAddr: 0x100006BAC, symSize: 0x18 }
  - { offsetInCU: 0x50CDF, offset: 0x50CDF, size: 0x8, addend: 0x0, symName: __ZNSt6vectorIN7atcoder13static_modintILi469762049ELPv0EEESaIS3_EEC1EmRKS4_, symObjAddr: 0x5AB8, symBinAddr: 0x100006BC4, symSize: 0x68 }
  - { offsetInCU: 0x50CFE, offset: 0x50CFE, size: 0x8, addend: 0x0, symName: __ZN7atcoder11convolutionINS_13static_modintILi167772161ELPv0EEELS2_0EEESt6vectorIT_SaIS5_EEOS7_S8_, symObjAddr: 0x592C, symBinAddr: 0x100006A38, symSize: 0x174 }
  - { offsetInCU: 0x50D06, offset: 0x50D06, size: 0x8, addend: 0x0, symName: __ZNK7atcoder13static_modintILi167772161ELPv0EE3valEv, symObjAddr: 0x5AA0, symBinAddr: 0x100006BAC, symSize: 0x18 }
  - { offsetInCU: 0x50DE8, offset: 0x50DE8, size: 0x8, addend: 0x0, symName: __ZNSt6vectorIN7atcoder13static_modintILi167772161ELPv0EEESaIS3_EEC1Ev, symObjAddr: 0x590C, symBinAddr: 0x100006A18, symSize: 0x20 }
  - { offsetInCU: 0x50DF0, offset: 0x50DF0, size: 0x8, addend: 0x0, symName: __ZN7atcoder11convolutionINS_13static_modintILi167772161ELPv0EEELS2_0EEESt6vectorIT_SaIS5_EEOS7_S8_, symObjAddr: 0x592C, symBinAddr: 0x100006A38, symSize: 0x174 }
  - { offsetInCU: 0x50E30, offset: 0x50E30, size: 0x8, addend: 0x0, symName: __ZNSt12_Vector_baseIN7atcoder13static_modintILi167772161ELPv0EEESaIS3_EEC2Ev, symObjAddr: 0x58EC, symBinAddr: 0x1000069F8, symSize: 0x20 }
  - { offsetInCU: 0x50E38, offset: 0x50E38, size: 0x8, addend: 0x0, symName: __ZNSt6vectorIN7atcoder13static_modintILi167772161ELPv0EEESaIS3_EEC1Ev, symObjAddr: 0x590C, symBinAddr: 0x100006A18, symSize: 0x20 }
  - { offsetInCU: 0x50E8D, offset: 0x50E8D, size: 0x8, addend: 0x0, symName: __ZNSt12_Vector_baseIN7atcoder13static_modintILi167772161ELPv0EEESaIS3_EE12_Vector_implD1Ev, symObjAddr: 0x58CC, symBinAddr: 0x1000069D8, symSize: 0x20 }
  - { offsetInCU: 0x50E95, offset: 0x50E95, size: 0x8, addend: 0x0, symName: __ZNSt12_Vector_baseIN7atcoder13static_modintILi167772161ELPv0EEESaIS3_EEC2Ev, symObjAddr: 0x58EC, symBinAddr: 0x1000069F8, symSize: 0x20 }
  - { offsetInCU: 0x50E81, offset: 0x50E81, size: 0x8, addend: 0x0, symName: __ZSt4moveIRSt6vectorIN7atcoder13static_modintILi167772161ELPv0EEESaIS4_EEEONSt16remove_referenceIT_E4typeEOS9_, symObjAddr: 0x58B8, symBinAddr: 0x1000069C4, symSize: 0x14 }
  - { offsetInCU: 0x50E89, offset: 0x50E89, size: 0x8, addend: 0x0, symName: __ZNSt12_Vector_baseIN7atcoder13static_modintILi167772161ELPv0EEESaIS3_EE12_Vector_implD1Ev, symObjAddr: 0x58CC, symBinAddr: 0x1000069D8, symSize: 0x20 }
  - { offsetInCU: 0x50F30, offset: 0x50F30, size: 0x8, addend: 0x0, symName: __ZN7atcoder13static_modintILi167772161ELPv0EEC1IxLS1_0EEET_, symObjAddr: 0x5850, symBinAddr: 0x10000695C, symSize: 0x68 }
  - { offsetInCU: 0x50F38, offset: 0x50F38, size: 0x8, addend: 0x0, symName: __ZSt4moveIRSt6vectorIN7atcoder13static_modintILi167772161ELPv0EEESaIS4_EEEONSt16remove_referenceIT_E4typeEOS9_, symObjAddr: 0x58B8, symBinAddr: 0x1000069C4, symSize: 0x14 }
  - { offsetInCU: 0x50F5A, offset: 0x50F5A, size: 0x8, addend: 0x0, symName: __ZN7atcoder13static_modintILi167772161ELPv0EE4umodEv, symObjAddr: 0x5844, symBinAddr: 0x100006950, symSize: 0xC }
  - { offsetInCU: 0x50F62, offset: 0x50F62, size: 0x8, addend: 0x0, symName: __ZN7atcoder13static_modintILi167772161ELPv0EEC1IxLS1_0EEET_, symObjAddr: 0x5850, symBinAddr: 0x10000695C, symSize: 0x68 }
  - { offsetInCU: 0x50F75, offset: 0x50F75, size: 0x8, addend: 0x0, symName: __ZNSt6vectorIN7atcoder13static_modintILi167772161ELPv0EEESaIS3_EEixEm, symObjAddr: 0x581C, symBinAddr: 0x100006928, symSize: 0x28 }
  - { offsetInCU: 0x50F7D, offset: 0x50F7D, size: 0x8, addend: 0x0, symName: __ZN7atcoder13static_modintILi167772161ELPv0EE4umodEv, symObjAddr: 0x5844, symBinAddr: 0x100006950, symSize: 0xC }
  - { offsetInCU: 0x51019, offset: 0x51019, size: 0x8, addend: 0x0, symName: __ZNSt6vectorIN7atcoder13static_modintILi167772161ELPv0EEESaIS3_EED1Ev, symObjAddr: 0x57C0, symBinAddr: 0x1000068CC, symSize: 0x5C }
  - { offsetInCU: 0x51021, offset: 0x51021, size: 0x8, addend: 0x0, symName: __ZNSt6vectorIN7atcoder13static_modintILi167772161ELPv0EEESaIS3_EEixEm, symObjAddr: 0x581C, symBinAddr: 0x100006928, symSize: 0x28 }
  - { offsetInCU: 0x510B1, offset: 0x510B1, size: 0x8, addend: 0x0, symName: __ZNSt6vectorIN7atcoder13static_modintILi167772161ELPv0EEESaIS3_EEC1EmRKS4_, symObjAddr: 0x5758, symBinAddr: 0x100006864, symSize: 0x68 }
  - { offsetInCU: 0x510B9, offset: 0x510B9, size: 0x8, addend: 0x0, symName: __ZNSt6vectorIN7atcoder13static_modintILi167772161ELPv0EEESaIS3_EED1Ev, symObjAddr: 0x57C0, symBinAddr: 0x1000068CC, symSize: 0x5C }
  - { offsetInCU: 0x510DB, offset: 0x510DB, size: 0x8, addend: 0x0, symName: __ZNK7atcoder13static_modintILi754974721ELPv0EE3valEv, symObjAddr: 0x5740, symBinAddr: 0x10000684C, symSize: 0x18 }
  - { offsetInCU: 0x510E3, offset: 0x510E3, size: 0x8, addend: 0x0, symName: __ZNSt6vectorIN7atcoder13static_modintILi167772161ELPv0EEESaIS3_EEC1EmRKS4_, symObjAddr: 0x5758, symBinAddr: 0x100006864, symSize: 0x68 }
  - { offsetInCU: 0x51102, offset: 0x51102, size: 0x8, addend: 0x0, symName: __ZN7atcoder11convolutionINS_13static_modintILi754974721ELPv0EEELS2_0EEESt6vectorIT_SaIS5_EEOS7_S8_, symObjAddr: 0x55CC, symBinAddr: 0x1000066D8, symSize: 0x174 }
  - { offsetInCU: 0x5110A, offset: 0x5110A, size: 0x8, addend: 0x0, symName: __ZNK7atcoder13static_modintILi754974721ELPv0EE3valEv, symObjAddr: 0x5740, symBinAddr: 0x10000684C, symSize: 0x18 }
  - { offsetInCU: 0x5118B, offset: 0x5118B, size: 0x8, addend: 0x0, symName: __ZSt3minIiERKT_S2_S2_, symObjAddr: 0x5594, symBinAddr: 0x1000066A0, symSize: 0x38 }
  - { offsetInCU: 0x51193, offset: 0x51193, size: 0x8, addend: 0x0, symName: __ZN7atcoder11convolutionINS_13static_modintILi754974721ELPv0EEELS2_0EEESt6vectorIT_SaIS5_EEOS7_S8_, symObjAddr: 0x55CC, symBinAddr: 0x1000066D8, symSize: 0x174 }
  - { offsetInCU: 0x5122E, offset: 0x5122E, size: 0x8, addend: 0x0, symName: __ZNSt6vectorIN7atcoder13static_modintILi754974721ELPv0EEESaIS3_EEC1Ev, symObjAddr: 0x5574, symBinAddr: 0x100006680, symSize: 0x20 }
  - { offsetInCU: 0x51236, offset: 0x51236, size: 0x8, addend: 0x0, symName: __ZSt3minIiERKT_S2_S2_, symObjAddr: 0x5594, symBinAddr: 0x1000066A0, symSize: 0x38 }
  - { offsetInCU: 0x51276, offset: 0x51276, size: 0x8, addend: 0x0, symName: __ZNSt12_Vector_baseIN7atcoder13static_modintILi754974721ELPv0EEESaIS3_EEC2Ev, symObjAddr: 0x5554, symBinAddr: 0x100006660, symSize: 0x20 }
  - { offsetInCU: 0x5127E, offset: 0x5127E, size: 0x8, addend: 0x0, symName: __ZNSt6vectorIN7atcoder13static_modintILi754974721ELPv0EEESaIS3_EEC1Ev, symObjAddr: 0x5574, symBinAddr: 0x100006680, symSize: 0x20 }
  - { offsetInCU: 0x512D3, offset: 0x512D3, size: 0x8, addend: 0x0, symName: __ZNSt12_Vector_baseIN7atcoder13static_modintILi754974721ELPv0EEESaIS3_EE12_Vector_implD1Ev, symObjAddr: 0x5534, symBinAddr: 0x100006640, symSize: 0x20 }
  - { offsetInCU: 0x512DB, offset: 0x512DB, size: 0x8, addend: 0x0, symName: __ZNSt12_Vector_baseIN7atcoder13static_modintILi754974721ELPv0EEESaIS3_EEC2Ev, symObjAddr: 0x5554, symBinAddr: 0x100006660, symSize: 0x20 }
  - { offsetInCU: 0x512C7, offset: 0x512C7, size: 0x8, addend: 0x0, symName: __ZSt4moveIRSt6vectorIN7atcoder13static_modintILi754974721ELPv0EEESaIS4_EEEONSt16remove_referenceIT_E4typeEOS9_, symObjAddr: 0x5520, symBinAddr: 0x10000662C, symSize: 0x14 }
  - { offsetInCU: 0x512CF, offset: 0x512CF, size: 0x8, addend: 0x0, symName: __ZNSt12_Vector_baseIN7atcoder13static_modintILi754974721ELPv0EEESaIS3_EE12_Vector_implD1Ev, symObjAddr: 0x5534, symBinAddr: 0x100006640, symSize: 0x20 }
  - { offsetInCU: 0x51376, offset: 0x51376, size: 0x8, addend: 0x0, symName: __ZN7atcoder13static_modintILi754974721ELPv0EEC1IxLS1_0EEET_, symObjAddr: 0x54B8, symBinAddr: 0x1000065C4, symSize: 0x68 }
  - { offsetInCU: 0x5137E, offset: 0x5137E, size: 0x8, addend: 0x0, symName: __ZSt4moveIRSt6vectorIN7atcoder13static_modintILi754974721ELPv0EEESaIS4_EEEONSt16remove_referenceIT_E4typeEOS9_, symObjAddr: 0x5520, symBinAddr: 0x10000662C, symSize: 0x14 }
  - { offsetInCU: 0x513A0, offset: 0x513A0, size: 0x8, addend: 0x0, symName: __ZN7atcoder13static_modintILi754974721ELPv0EE4umodEv, symObjAddr: 0x54AC, symBinAddr: 0x1000065B8, symSize: 0xC }
  - { offsetInCU: 0x513A8, offset: 0x513A8, size: 0x8, addend: 0x0, symName: __ZN7atcoder13static_modintILi754974721ELPv0EEC1IxLS1_0EEET_, symObjAddr: 0x54B8, symBinAddr: 0x1000065C4, symSize: 0x68 }
  - { offsetInCU: 0x513BB, offset: 0x513BB, size: 0x8, addend: 0x0, symName: __ZNSt6vectorIN7atcoder13static_modintILi754974721ELPv0EEESaIS3_EEixEm, symObjAddr: 0x5484, symBinAddr: 0x100006590, symSize: 0x28 }
  - { offsetInCU: 0x513C3, offset: 0x513C3, size: 0x8, addend: 0x0, symName: __ZN7atcoder13static_modintILi754974721ELPv0EE4umodEv, symObjAddr: 0x54AC, symBinAddr: 0x1000065B8, symSize: 0xC }
  - { offsetInCU: 0x5145F, offset: 0x5145F, size: 0x8, addend: 0x0, symName: __ZNSt6vectorIN7atcoder13static_modintILi754974721ELPv0EEESaIS3_EED1Ev, symObjAddr: 0x5428, symBinAddr: 0x100006534, symSize: 0x5C }
  - { offsetInCU: 0x51467, offset: 0x51467, size: 0x8, addend: 0x0, symName: __ZNSt6vectorIN7atcoder13static_modintILi754974721ELPv0EEESaIS3_EEixEm, symObjAddr: 0x5484, symBinAddr: 0x100006590, symSize: 0x28 }
  - { offsetInCU: 0x514F7, offset: 0x514F7, size: 0x8, addend: 0x0, symName: __ZNSt6vectorIN7atcoder13static_modintILi754974721ELPv0EEESaIS3_EEC1EmRKS4_, symObjAddr: 0x53C0, symBinAddr: 0x1000064CC, symSize: 0x68 }
  - { offsetInCU: 0x514FF, offset: 0x514FF, size: 0x8, addend: 0x0, symName: __ZNSt6vectorIN7atcoder13static_modintILi754974721ELPv0EEESaIS3_EED1Ev, symObjAddr: 0x5428, symBinAddr: 0x100006534, symSize: 0x5C }
  - { offsetInCU: 0x5151D, offset: 0x5151D, size: 0x8, addend: 0x0, symName: __ZSt8bit_ceilIjENSt9enable_ifIXsrSt5__or_IJSt7is_sameINSt9remove_cvIT_E4typeEhES2_IS6_tES2_IS6_jES2_IS6_mES2_IS6_yES2_IS6_oEEE5valueES4_E4typeES4_, symObjAddr: 0x53A4, symBinAddr: 0x1000064B0, symSize: 0x1C }
  - { offsetInCU: 0x51525, offset: 0x51525, size: 0x8, addend: 0x0, symName: __ZNSt6vectorIN7atcoder13static_modintILi754974721ELPv0EEESaIS3_EEC1EmRKS4_, symObjAddr: 0x53C0, symBinAddr: 0x1000064CC, symSize: 0x68 }
  - { offsetInCU: 0x5158F, offset: 0x5158F, size: 0x8, addend: 0x0, symName: __ZNSt12_Vector_baseIxSaIxEE19_M_get_Tp_allocatorEv, symObjAddr: 0x5390, symBinAddr: 0x10000649C, symSize: 0x14 }
  - { offsetInCU: 0x51597, offset: 0x51597, size: 0x8, addend: 0x0, symName: __ZSt8bit_ceilIjENSt9enable_ifIXsrSt5__or_IJSt7is_sameINSt9remove_cvIT_E4typeEhES2_IS6_tES2_IS6_jES2_IS6_mES2_IS6_yES2_IS6_oEEE5valueES4_E4typeES4_, symObjAddr: 0x53A4, symBinAddr: 0x1000064B0, symSize: 0x1C }
  - { offsetInCU: 0x515BA, offset: 0x515BA, size: 0x8, addend: 0x0, symName: __ZNSt12_Vector_baseIxSaIxEE13_M_deallocateEPxm, symObjAddr: 0x5300, symBinAddr: 0x10000640C, symSize: 0x90 }
  - { offsetInCU: 0x515C2, offset: 0x515C2, size: 0x8, addend: 0x0, symName: __ZNSt12_Vector_baseIxSaIxEE19_M_get_Tp_allocatorEv, symObjAddr: 0x5390, symBinAddr: 0x10000649C, symSize: 0x14 }
  - { offsetInCU: 0x516BE, offset: 0x516BE, size: 0x8, addend: 0x0, symName: __ZNSt12_Vector_baseIxSaIxEE17_Vector_impl_dataC2Ev, symObjAddr: 0x52D4, symBinAddr: 0x1000063E0, symSize: 0x2C }
  - { offsetInCU: 0x516C6, offset: 0x516C6, size: 0x8, addend: 0x0, symName: __ZNSt12_Vector_baseIxSaIxEE13_M_deallocateEPxm, symObjAddr: 0x5300, symBinAddr: 0x10000640C, symSize: 0x90 }
  - { offsetInCU: 0x516B7, offset: 0x516B7, size: 0x8, addend: 0x0, symName: __ZSt4moveIRyEONSt16remove_referenceIT_E4typeEOS2_, symObjAddr: 0x52C0, symBinAddr: 0x1000063CC, symSize: 0x14 }
  - { offsetInCU: 0x516BF, offset: 0x516BF, size: 0x8, addend: 0x0, symName: __ZNSt12_Vector_baseIxSaIxEE17_Vector_impl_dataC2Ev, symObjAddr: 0x52D4, symBinAddr: 0x1000063E0, symSize: 0x2C }
  - { offsetInCU: 0x516EF, offset: 0x516EF, size: 0x8, addend: 0x0, symName: __ZSt7forwardIiEOT_RNSt16remove_referenceIS0_E4typeE, symObjAddr: 0x52AC, symBinAddr: 0x1000063B8, symSize: 0x14 }
  - { offsetInCU: 0x516F7, offset: 0x516F7, size: 0x8, addend: 0x0, symName: __ZSt4moveIRyEONSt16remove_referenceIT_E4typeEOS2_, symObjAddr: 0x52C0, symBinAddr: 0x1000063CC, symSize: 0x14 }
  - { offsetInCU: 0x51725, offset: 0x51725, size: 0x8, addend: 0x0, symName: __ZNKSt7__cxx1112basic_stringIcSt11char_traitsIcESaIcEE7_M_dataEv, symObjAddr: 0x5294, symBinAddr: 0x1000063A0, symSize: 0x18 }
  - { offsetInCU: 0x5172D, offset: 0x5172D, size: 0x8, addend: 0x0, symName: __ZSt7forwardIiEOT_RNSt16remove_referenceIS0_E4typeE, symObjAddr: 0x52AC, symBinAddr: 0x1000063B8, symSize: 0x14 }
  - { offsetInCU: 0x51770, offset: 0x51770, size: 0x8, addend: 0x0, symName: __ZN4swagISt4pairIN7atcoder13static_modintILi998244353ELPv0EEES4_EXtlN2opMUlS5_S5_E_EEEXtlN1eMUlvE_EEEE4foldEv, symObjAddr: 0x5248, symBinAddr: 0x100006354, symSize: 0x4C }
  - { offsetInCU: 0x51778, offset: 0x51778, size: 0x8, addend: 0x0, symName: __ZNKSt7__cxx1112basic_stringIcSt11char_traitsIcESaIcEE7_M_dataEv, symObjAddr: 0x5294, symBinAddr: 0x1000063A0, symSize: 0x18 }
  - { offsetInCU: 0x5179B, offset: 0x5179B, size: 0x8, addend: 0x0, symName: __ZN4swagISt4pairIN7atcoder13static_modintILi998244353ELPv0EEES4_EXtlN2opMUlS5_S5_E_EEEXtlN1eMUlvE_EEEE9pop_frontEv, symObjAddr: 0x50D4, symBinAddr: 0x1000061E0, symSize: 0x174 }
  - { offsetInCU: 0x517A3, offset: 0x517A3, size: 0x8, addend: 0x0, symName: __ZN4swagISt4pairIN7atcoder13static_modintILi998244353ELPv0EEES4_EXtlN2opMUlS5_S5_E_EEEXtlN1eMUlvE_EEEE4foldEv, symObjAddr: 0x5248, symBinAddr: 0x100006354, symSize: 0x4C }
  - { offsetInCU: 0x51833, offset: 0x51833, size: 0x8, addend: 0x0, symName: __ZNKSt6vectorISt4pairIN7atcoder13static_modintILi998244353ELPv0EEES4_ESaIS5_EE4sizeEv, symObjAddr: 0x50AC, symBinAddr: 0x1000061B8, symSize: 0x28 }
  - { offsetInCU: 0x5183B, offset: 0x5183B, size: 0x8, addend: 0x0, symName: __ZN4swagISt4pairIN7atcoder13static_modintILi998244353ELPv0EEES4_EXtlN2opMUlS5_S5_E_EEEXtlN1eMUlvE_EEEE9pop_frontEv, symObjAddr: 0x50D4, symBinAddr: 0x1000061E0, symSize: 0x174 }
  - { offsetInCU: 0x51918, offset: 0x51918, size: 0x8, addend: 0x0, symName: __ZNSt12_Vector_baseISt4pairIN7atcoder13static_modintILi998244353ELPv0EEES4_ESaIS5_EE12_Vector_implD1Ev, symObjAddr: 0x508C, symBinAddr: 0x100006198, symSize: 0x20 }
  - { offsetInCU: 0x51920, offset: 0x51920, size: 0x8, addend: 0x0, symName: __ZNKSt6vectorISt4pairIN7atcoder13static_modintILi998244353ELPv0EEES4_ESaIS5_EE4sizeEv, symObjAddr: 0x50AC, symBinAddr: 0x1000061B8, symSize: 0x28 }
  - { offsetInCU: 0x5198E, offset: 0x5198E, size: 0x8, addend: 0x0, symName: __ZNSt4pairIN7atcoder13static_modintILi998244353ELPv0EEES3_EC1IRiiEEOT_OT0_, symObjAddr: 0x5028, symBinAddr: 0x100006134, symSize: 0x64 }
  - { offsetInCU: 0x51996, offset: 0x51996, size: 0x8, addend: 0x0, symName: __ZNSt12_Vector_baseISt4pairIN7atcoder13static_modintILi998244353ELPv0EEES4_ESaIS5_EE12_Vector_implD1Ev, symObjAddr: 0x508C, symBinAddr: 0x100006198, symSize: 0x20 }
  - { offsetInCU: 0x51991, offset: 0x51991, size: 0x8, addend: 0x0, symName: __ZN4swagISt4pairIN7atcoder13static_modintILi998244353ELPv0EEES4_EXtlN2opMUlS5_S5_E_EEEXtlN1eMUlvE_EEEE9push_backES5_, symObjAddr: 0x5000, symBinAddr: 0x10000610C, symSize: 0x28 }
  - { offsetInCU: 0x51999, offset: 0x51999, size: 0x8, addend: 0x0, symName: __ZNSt4pairIN7atcoder13static_modintILi998244353ELPv0EEES3_EC1IRiiEEOT_OT0_, symObjAddr: 0x5028, symBinAddr: 0x100006134, symSize: 0x64 }
  - { offsetInCU: 0x51A3F, offset: 0x51A3F, size: 0x8, addend: 0x0, symName: __ZNSt5dequeISt4pairIN7atcoder13static_modintILi998244353ELPv0EEES4_ESaIS5_EED1Ev, symObjAddr: 0x4F98, symBinAddr: 0x1000060A4, symSize: 0x68 }
  - { offsetInCU: 0x51A47, offset: 0x51A47, size: 0x8, addend: 0x0, symName: __ZN4swagISt4pairIN7atcoder13static_modintILi998244353ELPv0EEES4_EXtlN2opMUlS5_S5_E_EEEXtlN1eMUlvE_EEEE9push_backES5_, symObjAddr: 0x5000, symBinAddr: 0x10000610C, symSize: 0x28 }
  - { offsetInCU: 0x51A9B, offset: 0x51A9B, size: 0x8, addend: 0x0, symName: __ZN4swagISt4pairIN7atcoder13static_modintILi998244353ELPv0EEES4_EXtlN2opMUlS5_S5_E_EEEXtlN1eMUlvE_EEEEC1Ev, symObjAddr: 0x4EAC, symBinAddr: 0x100005FB8, symSize: 0xEC }
  - { offsetInCU: 0x51AA3, offset: 0x51AA3, size: 0x8, addend: 0x0, symName: __ZNSt5dequeISt4pairIN7atcoder13static_modintILi998244353ELPv0EEES4_ESaIS5_EED1Ev, symObjAddr: 0x4F98, symBinAddr: 0x1000060A4, symSize: 0x68 }
  - { offsetInCU: 0x51AE9, offset: 0x51AE9, size: 0x8, addend: 0x0, symName: __ZNSt4pairIN7atcoder13static_modintILi998244353ELPv0EEES3_EC1IiiEEOT_OT0_, symObjAddr: 0x4E48, symBinAddr: 0x100005F54, symSize: 0x64 }
  - { offsetInCU: 0x51AF1, offset: 0x51AF1, size: 0x8, addend: 0x0, symName: __ZN4swagISt4pairIN7atcoder13static_modintILi998244353ELPv0EEES4_EXtlN2opMUlS5_S5_E_EEEXtlN1eMUlvE_EEEEC1Ev, symObjAddr: 0x4EAC, symBinAddr: 0x100005FB8, symSize: 0xEC }
  - { offsetInCU: 0x51B80, offset: 0x51B80, size: 0x8, addend: 0x0, symName: __ZNSt4pairIN7atcoder13static_modintILi998244353ELPv0EEES3_EC1IS3_S3_EEOT_OT0_, symObjAddr: 0x4DF8, symBinAddr: 0x100005F04, symSize: 0x50 }
  - { offsetInCU: 0x51B88, offset: 0x51B88, size: 0x8, addend: 0x0, symName: __ZNSt4pairIN7atcoder13static_modintILi998244353ELPv0EEES3_EC1IiiEEOT_OT0_, symObjAddr: 0x4E48, symBinAddr: 0x100005F54, symSize: 0x64 }
  - { offsetInCU: 0x51B7C, offset: 0x51B7C, size: 0x8, addend: 0x0, symName: __ZN7atcoderplERKNS_13static_modintILi998244353ELPv0EEES4_, symObjAddr: 0x4DC4, symBinAddr: 0x100005ED0, symSize: 0x34 }
  - { offsetInCU: 0x51B84, offset: 0x51B84, size: 0x8, addend: 0x0, symName: __ZNSt4pairIN7atcoder13static_modintILi998244353ELPv0EEES3_EC1IS3_S3_EEOT_OT0_, symObjAddr: 0x4DF8, symBinAddr: 0x100005F04, symSize: 0x50 }
  - { offsetInCU: 0x51BB5, offset: 0x51BB5, size: 0x8, addend: 0x0, symName: __ZN7atcodermlERKNS_13static_modintILi998244353ELPv0EEES4_, symObjAddr: 0x4D90, symBinAddr: 0x100005E9C, symSize: 0x34 }
  - { offsetInCU: 0x51BBD, offset: 0x51BBD, size: 0x8, addend: 0x0, symName: __ZN7atcoderplERKNS_13static_modintILi998244353ELPv0EEES4_, symObjAddr: 0x4DC4, symBinAddr: 0x100005ED0, symSize: 0x34 }
  - { offsetInCU: 0x51BF2, offset: 0x51BF2, size: 0x8, addend: 0x0, symName: __ZNK7atcoder13static_modintILi1000000007ELPv0EE3valEv, symObjAddr: 0x4D78, symBinAddr: 0x100005E84, symSize: 0x18 }
  - { offsetInCU: 0x51BFA, offset: 0x51BFA, size: 0x8, addend: 0x0, symName: __ZN7atcodermlERKNS_13static_modintILi998244353ELPv0EEES4_, symObjAddr: 0x4D90, symBinAddr: 0x100005E9C, symSize: 0x34 }
  - { offsetInCU: 0x51C1D, offset: 0x51C1D, size: 0x8, addend: 0x0, symName: __ZNK7atcoder13static_modintILi998244353ELPv0EE3valEv, symObjAddr: 0x4D60, symBinAddr: 0x100005E6C, symSize: 0x18 }
  - { offsetInCU: 0x51C25, offset: 0x51C25, size: 0x8, addend: 0x0, symName: __ZNK7atcoder13static_modintILi1000000007ELPv0EE3valEv, symObjAddr: 0x4D78, symBinAddr: 0x100005E84, symSize: 0x18 }
  - { offsetInCU: 0x51C48, offset: 0x51C48, size: 0x8, addend: 0x0, symName: __ZNSt6vectorIbSaIbEEixEm, symObjAddr: 0x4D30, symBinAddr: 0x100005E3C, symSize: 0x30 }
  - { offsetInCU: 0x51C50, offset: 0x51C50, size: 0x8, addend: 0x0, symName: __ZNK7atcoder13static_modintILi998244353ELPv0EE3valEv, symObjAddr: 0x4D60, symBinAddr: 0x100005E6C, symSize: 0x18 }
  - { offsetInCU: 0x51CD5, offset: 0x51CD5, size: 0x8, addend: 0x0, symName: __ZNSt6vectorIbSaIbEEC1EmRKS0_, symObjAddr: 0x4CF4, symBinAddr: 0x100005E00, symSize: 0x3C }
  - { offsetInCU: 0x51CDD, offset: 0x51CDD, size: 0x8, addend: 0x0, symName: __ZNSt6vectorIbSaIbEEixEm, symObjAddr: 0x4D30, symBinAddr: 0x100005E3C, symSize: 0x30 }
  - { offsetInCU: 0x51D67, offset: 0x51D67, size: 0x8, addend: 0x0, symName: __ZNSt6vectorIbSaIbEED1Ev, symObjAddr: 0x4CD4, symBinAddr: 0x100005DE0, symSize: 0x20 }
  - { offsetInCU: 0x51D6F, offset: 0x51D6F, size: 0x8, addend: 0x0, symName: __ZNSt6vectorIbSaIbEEC1EmRKS0_, symObjAddr: 0x4CF4, symBinAddr: 0x100005E00, symSize: 0x3C }
  - { offsetInCU: 0x51DBA, offset: 0x51DBA, size: 0x8, addend: 0x0, symName: __ZNSt13_Bvector_baseISaIbEED2Ev, symObjAddr: 0x4CAC, symBinAddr: 0x100005DB8, symSize: 0x28 }
  - { offsetInCU: 0x51DC2, offset: 0x51DC2, size: 0x8, addend: 0x0, symName: __ZNSt6vectorIbSaIbEED1Ev, symObjAddr: 0x4CD4, symBinAddr: 0x100005DE0, symSize: 0x20 }
  - { offsetInCU: 0x51DC0, offset: 0x51DC0, size: 0x8, addend: 0x0, symName: __ZN7atcoder11z_algorithmIiEESt6vectorIiSaIiEERKS1_IT_SaIS4_EE, symObjAddr: 0x4A5C, symBinAddr: 0x100005B68, symSize: 0x250 }
  - { offsetInCU: 0x51DC8, offset: 0x51DC8, size: 0x8, addend: 0x0, symName: __ZNSt13_Bvector_baseISaIbEED2Ev, symObjAddr: 0x4CAC, symBinAddr: 0x100005DB8, symSize: 0x28 }
  - { offsetInCU: 0x51ECC, offset: 0x51ECC, size: 0x8, addend: 0x0, symName: __ZN7atcoder9lcp_arrayIiEESt6vectorIiSaIiEERKS1_IT_SaIS4_EERKS3_, symObjAddr: 0x47C0, symBinAddr: 0x1000058CC, symSize: 0x29C }
  - { offsetInCU: 0x51ED4, offset: 0x51ED4, size: 0x8, addend: 0x0, symName: __ZN7atcoder11z_algorithmIiEESt6vectorIiSaIiEERKS1_IT_SaIS4_EE, symObjAddr: 0x4A5C, symBinAddr: 0x100005B68, symSize: 0x250 }
  - { offsetInCU: 0x520AA, offset: 0x520AA, size: 0x8, addend: 0x0, symName: __ZNKSt7__cxx1112basic_stringIcSt11char_traitsIcESaIcEEixEm, symObjAddr: 0x4754, symBinAddr: 0x100005860, symSize: 0x6C }
  - { offsetInCU: 0x520B2, offset: 0x520B2, size: 0x8, addend: 0x0, symName: __ZN7atcoder9lcp_arrayIiEESt6vectorIiSaIiEERKS1_IT_SaIS4_EERKS3_, symObjAddr: 0x47C0, symBinAddr: 0x1000058CC, symSize: 0x29C }
  - { offsetInCU: 0x520E2, offset: 0x520E2, size: 0x8, addend: 0x0, symName: __ZN7atcoder8internal5sa_isILi10ELi40EEESt6vectorIiSaIiEERKS4_i, symObjAddr: 0x3BE8, symBinAddr: 0x100004CF4, symSize: 0xB6C }
  - { offsetInCU: 0x520EA, offset: 0x520EA, size: 0x8, addend: 0x0, symName: __ZNKSt7__cxx1112basic_stringIcSt11char_traitsIcESaIcEEixEm, symObjAddr: 0x4754, symBinAddr: 0x100005860, symSize: 0x6C }
  - { offsetInCU: 0x522C3, offset: 0x522C3, size: 0x8, addend: 0x0, symName: __ZZN7atcoder8internal5sa_isILi10ELi40EEESt6vectorIiSaIiEERKS4_iENKUlS6_E_clES6_, symObjAddr: 0x373C, symBinAddr: 0x100004848, symSize: 0x4AC }
  - { offsetInCU: 0x522CB, offset: 0x522CB, size: 0x8, addend: 0x0, symName: __ZN7atcoder8internal5sa_isILi10ELi40EEESt6vectorIiSaIiEERKS4_i, symObjAddr: 0x3BE8, symBinAddr: 0x100004CF4, symSize: 0xB6C }
  - { offsetInCU: 0x52A4D, offset: 0x52A4D, size: 0x8, addend: 0x0, symName: __ZN9__gnu_cxx17__normal_iteratorIPKiSt6vectorIiSaIiEEEppEv, symObjAddr: 0x3714, symBinAddr: 0x100004820, symSize: 0x28 }
  - { offsetInCU: 0x52A55, offset: 0x52A55, size: 0x8, addend: 0x0, symName: __ZZN7atcoder8internal5sa_isILi10ELi40EEESt6vectorIiSaIiEERKS4_iENKUlS6_E_clES6_, symObjAddr: 0x373C, symBinAddr: 0x100004848, symSize: 0x4AC }
  - { offsetInCU: 0x52A78, offset: 0x52A78, size: 0x8, addend: 0x0, symName: __ZNKSt6vectorIiSaIiEE3endEv, symObjAddr: 0x36EC, symBinAddr: 0x1000047F8, symSize: 0x28 }
  - { offsetInCU: 0x52A80, offset: 0x52A80, size: 0x8, addend: 0x0, symName: __ZN9__gnu_cxx17__normal_iteratorIPKiSt6vectorIiSaIiEEEppEv, symObjAddr: 0x3714, symBinAddr: 0x100004820, symSize: 0x28 }
  - { offsetInCU: 0x52AA3, offset: 0x52AA3, size: 0x8, addend: 0x0, symName: __ZNKSt6vectorIiSaIiEE5beginEv, symObjAddr: 0x36C8, symBinAddr: 0x1000047D4, symSize: 0x24 }
  - { offsetInCU: 0x52AAB, offset: 0x52AAB, size: 0x8, addend: 0x0, symName: __ZNKSt6vectorIiSaIiEE3endEv, symObjAddr: 0x36EC, symBinAddr: 0x1000047F8, symSize: 0x28 }
  - { offsetInCU: 0x52ACA, offset: 0x52ACA, size: 0x8, addend: 0x0, symName: __ZSt4swapIiSaIiEEvRSt6vectorIT_T0_ES5_, symObjAddr: 0x36A0, symBinAddr: 0x1000047AC, symSize: 0x28 }
  - { offsetInCU: 0x52AD2, offset: 0x52AD2, size: 0x8, addend: 0x0, symName: __ZNKSt6vectorIiSaIiEE5beginEv, symObjAddr: 0x36C8, symBinAddr: 0x1000047D4, symSize: 0x24 }
  - { offsetInCU: 0x52B17, offset: 0x52B17, size: 0x8, addend: 0x0, symName: __ZSt4sortIN9__gnu_cxx17__normal_iteratorIPiSt6vectorIiSaIiEEEEZN7atcoder8internal11sa_doublingERKS5_EUliiE_EvT_SC_T0_, symObjAddr: 0x3624, symBinAddr: 0x100004730, symSize: 0x7C }
  - { offsetInCU: 0x52B1F, offset: 0x52B1F, size: 0x8, addend: 0x0, symName: __ZSt4swapIiSaIiEEvRSt6vectorIT_T0_ES5_, symObjAddr: 0x36A0, symBinAddr: 0x1000047AC, symSize: 0x28 }
  - { offsetInCU: 0x52BBB, offset: 0x52BBB, size: 0x8, addend: 0x0, symName: __ZNSt6vectorIiSaIiEEC1ERKS1_, symObjAddr: 0x3530, symBinAddr: 0x10000463C, symSize: 0xF4 }
  - { offsetInCU: 0x52BC3, offset: 0x52BC3, size: 0x8, addend: 0x0, symName: __ZSt4sortIN9__gnu_cxx17__normal_iteratorIPiSt6vectorIiSaIiEEEEZN7atcoder8internal11sa_doublingERKS5_EUliiE_EvT_SC_T0_, symObjAddr: 0x3624, symBinAddr: 0x100004730, symSize: 0x7C }
  - { offsetInCU: 0x52CE9, offset: 0x52CE9, size: 0x8, addend: 0x0, symName: __ZNSt12_Vector_baseIiSaIiEE12_Vector_implC1EOS2_, symObjAddr: 0x34C4, symBinAddr: 0x1000045D0, symSize: 0x6C }
  - { offsetInCU: 0x52CF1, offset: 0x52CF1, size: 0x8, addend: 0x0, symName: __ZNSt6vectorIiSaIiEEC1ERKS1_, symObjAddr: 0x3530, symBinAddr: 0x10000463C, symSize: 0xF4 }
  - { offsetInCU: 0x52D3F, offset: 0x52D3F, size: 0x8, addend: 0x0, symName: __ZSt4sortIN9__gnu_cxx17__normal_iteratorIPiSt6vectorIiSaIiEEEEZN7atcoder8internal8sa_naiveERKS5_EUliiE_EvT_SC_T0_, symObjAddr: 0x3488, symBinAddr: 0x100004594, symSize: 0x3C }
  - { offsetInCU: 0x52D47, offset: 0x52D47, size: 0x8, addend: 0x0, symName: __ZNSt12_Vector_baseIiSaIiEE12_Vector_implC1EOS2_, symObjAddr: 0x34C4, symBinAddr: 0x1000045D0, symSize: 0x6C }
  - { offsetInCU: 0x52DA1, offset: 0x52DA1, size: 0x8, addend: 0x0, symName: __ZNKSt6vectorIiSaIiEEixEm, symObjAddr: 0x3460, symBinAddr: 0x10000456C, symSize: 0x28 }
  - { offsetInCU: 0x52DA9, offset: 0x52DA9, size: 0x8, addend: 0x0, symName: __ZSt4sortIN9__gnu_cxx17__normal_iteratorIPiSt6vectorIiSaIiEEEEZN7atcoder8internal8sa_naiveERKS5_EUliiE_EvT_SC_T0_, symObjAddr: 0x3488, symBinAddr: 0x100004594, symSize: 0x3C }
  - { offsetInCU: 0x52DD9, offset: 0x52DD9, size: 0x8, addend: 0x0, symName: __ZSt4iotaIN9__gnu_cxx17__normal_iteratorIPiSt6vectorIiSaIiEEEEiEvT_S7_T0_, symObjAddr: 0x33E8, symBinAddr: 0x1000044F4, symSize: 0x78 }
  - { offsetInCU: 0x52DE1, offset: 0x52DE1, size: 0x8, addend: 0x0, symName: __ZNKSt6vectorIiSaIiEEixEm, symObjAddr: 0x3460, symBinAddr: 0x10000456C, symSize: 0x28 }
  - { offsetInCU: 0x52E38, offset: 0x52E38, size: 0x8, addend: 0x0, symName: __ZN9__gnu_cxx17__normal_iteratorIPiSt6vectorIiSaIiEEEppEv, symObjAddr: 0x33C0, symBinAddr: 0x1000044CC, symSize: 0x28 }
  - { offsetInCU: 0x52E40, offset: 0x52E40, size: 0x8, addend: 0x0, symName: __ZSt4iotaIN9__gnu_cxx17__normal_iteratorIPiSt6vectorIiSaIiEEEEiEvT_S7_T0_, symObjAddr: 0x33E8, symBinAddr: 0x1000044F4, symSize: 0x78 }
  - { offsetInCU: 0x52E63, offset: 0x52E63, size: 0x8, addend: 0x0, symName: __ZNSt6vectorIiSaIiEE3endEv, symObjAddr: 0x3398, symBinAddr: 0x1000044A4, symSize: 0x28 }
  - { offsetInCU: 0x52E6B, offset: 0x52E6B, size: 0x8, addend: 0x0, symName: __ZN9__gnu_cxx17__normal_iteratorIPiSt6vectorIiSaIiEEEppEv, symObjAddr: 0x33C0, symBinAddr: 0x1000044CC, symSize: 0x28 }
  - { offsetInCU: 0x52E8E, offset: 0x52E8E, size: 0x8, addend: 0x0, symName: __ZNSt6vectorIiSaIiEE5beginEv, symObjAddr: 0x3374, symBinAddr: 0x100004480, symSize: 0x24 }
  - { offsetInCU: 0x52E96, offset: 0x52E96, size: 0x8, addend: 0x0, symName: __ZNSt6vectorIiSaIiEE3endEv, symObjAddr: 0x3398, symBinAddr: 0x1000044A4, symSize: 0x28 }
  - { offsetInCU: 0x52EB9, offset: 0x52EB9, size: 0x8, addend: 0x0, symName: __ZNSt5tupleIJRxS0_EEaSIxxEENSt9enable_ifIXcl12__assignableIT_T0_EEERS1_E4typeEOSt4pairIS4_S5_E, symObjAddr: 0x3314, symBinAddr: 0x100004420, symSize: 0x60 }
  - { offsetInCU: 0x52EC1, offset: 0x52EC1, size: 0x8, addend: 0x0, symName: __ZNSt6vectorIiSaIiEE5beginEv, symObjAddr: 0x3374, symBinAddr: 0x100004480, symSize: 0x24 }
  - { offsetInCU: 0x52F03, offset: 0x52F03, size: 0x8, addend: 0x0, symName: __ZSt3tieIJxxEESt5tupleIJDpRT_EES3_, symObjAddr: 0x32DC, symBinAddr: 0x1000043E8, symSize: 0x38 }
  - { offsetInCU: 0x52F0B, offset: 0x52F0B, size: 0x8, addend: 0x0, symName: __ZNSt5tupleIJRxS0_EEaSIxxEENSt9enable_ifIXcl12__assignableIT_T0_EEERS1_E4typeEOSt4pairIS4_S5_E, symObjAddr: 0x3314, symBinAddr: 0x100004420, symSize: 0x60 }
  - { offsetInCU: 0x52FAB, offset: 0x52FAB, size: 0x8, addend: 0x0, symName: __ZNSt4pairIxxEC1IiiEEOT_OT0_, symObjAddr: 0x328C, symBinAddr: 0x100004398, symSize: 0x50 }
  - { offsetInCU: 0x52FB3, offset: 0x52FB3, size: 0x8, addend: 0x0, symName: __ZSt3tieIJxxEESt5tupleIJDpRT_EES3_, symObjAddr: 0x32DC, symBinAddr: 0x1000043E8, symSize: 0x38 }
  - { offsetInCU: 0x52FD8, offset: 0x52FD8, size: 0x8, addend: 0x0, symName: __ZSt4swapIxENSt9enable_ifIXsrSt6__and_IJSt6__not_ISt15__is_tuple_likeIT_EESt21is_move_constructibleIS4_ESt18is_move_assignableIS4_EEE5valueEvE4typeERS4_SE_, symObjAddr: 0x3238, symBinAddr: 0x100004344, symSize: 0x54 }
  - { offsetInCU: 0x52FE0, offset: 0x52FE0, size: 0x8, addend: 0x0, symName: __ZNSt4pairIxxEC1IiiEEOT_OT0_, symObjAddr: 0x328C, symBinAddr: 0x100004398, symSize: 0x50 }
  - { offsetInCU: 0x5302E, offset: 0x5302E, size: 0x8, addend: 0x0, symName: __ZNKSt6vectorIxSaIxEEixEm, symObjAddr: 0x3210, symBinAddr: 0x10000431C, symSize: 0x28 }
  - { offsetInCU: 0x53036, offset: 0x53036, size: 0x8, addend: 0x0, symName: __ZSt4swapIxENSt9enable_ifIXsrSt6__and_IJSt6__not_ISt15__is_tuple_likeIT_EESt21is_move_constructibleIS4_ESt18is_move_assignableIS4_EEE5valueEvE4typeERS4_SE_, symObjAddr: 0x3238, symBinAddr: 0x100004344, symSize: 0x54 }
  - { offsetInCU: 0x5306A, offset: 0x5306A, size: 0x8, addend: 0x0, symName: __ZNSt6vectorIiSaIiEE9push_backERKi, symObjAddr: 0x3178, symBinAddr: 0x100004284, symSize: 0x98 }
  - { offsetInCU: 0x53072, offset: 0x53072, size: 0x8, addend: 0x0, symName: __ZNKSt6vectorIxSaIxEEixEm, symObjAddr: 0x3210, symBinAddr: 0x10000431C, symSize: 0x28 }
  - { offsetInCU: 0x530DC, offset: 0x530DC, size: 0x8, addend: 0x0, symName: __ZNSt6vectorIiSaIiEE7reserveEm, symObjAddr: 0x303C, symBinAddr: 0x100004148, symSize: 0x13C }
  - { offsetInCU: 0x530E4, offset: 0x530E4, size: 0x8, addend: 0x0, symName: __ZNSt6vectorIiSaIiEE9push_backERKi, symObjAddr: 0x3178, symBinAddr: 0x100004284, symSize: 0x98 }
  - { offsetInCU: 0x5314A, offset: 0x5314A, size: 0x8, addend: 0x0, symName: __ZNKSt6vectorIiSaIiEE4sizeEv, symObjAddr: 0x3014, symBinAddr: 0x100004120, symSize: 0x28 }
  - { offsetInCU: 0x53152, offset: 0x53152, size: 0x8, addend: 0x0, symName: __ZNSt6vectorIiSaIiEE7reserveEm, symObjAddr: 0x303C, symBinAddr: 0x100004148, symSize: 0x13C }
  - { offsetInCU: 0x531C6, offset: 0x531C6, size: 0x8, addend: 0x0, symName: __ZNSt6vectorIiSaIiEEC1EmRKS0_, symObjAddr: 0x2FAC, symBinAddr: 0x1000040B8, symSize: 0x68 }
  - { offsetInCU: 0x531CE, offset: 0x531CE, size: 0x8, addend: 0x0, symName: __ZNKSt6vectorIiSaIiEE4sizeEv, symObjAddr: 0x3014, symBinAddr: 0x100004120, symSize: 0x28 }
  - { offsetInCU: 0x531E0, offset: 0x531E0, size: 0x8, addend: 0x0, symName: __ZSt4swapIiENSt9enable_ifIXsrSt6__and_IJSt6__not_ISt15__is_tuple_likeIT_EESt21is_move_constructibleIS4_ESt18is_move_assignableIS4_EEE5valueEvE4typeERS4_SE_, symObjAddr: 0x2F58, symBinAddr: 0x100004064, symSize: 0x54 }
  - { offsetInCU: 0x531E8, offset: 0x531E8, size: 0x8, addend: 0x0, symName: __ZNSt6vectorIiSaIiEEC1EmRKS0_, symObjAddr: 0x2FAC, symBinAddr: 0x1000040B8, symSize: 0x68 }
  - { offsetInCU: 0x53298, offset: 0x53298, size: 0x8, addend: 0x0, symName: __ZNSt6vectorIiSaIiEEC1EmRKiRKS0_, symObjAddr: 0x2EE8, symBinAddr: 0x100003FF4, symSize: 0x70 }
  - { offsetInCU: 0x532A0, offset: 0x532A0, size: 0x8, addend: 0x0, symName: __ZSt4swapIiENSt9enable_ifIXsrSt6__and_IJSt6__not_ISt15__is_tuple_likeIT_EESt21is_move_constructibleIS4_ESt18is_move_assignableIS4_EEE5valueEvE4typeERS4_SE_, symObjAddr: 0x2F58, symBinAddr: 0x100004064, symSize: 0x54 }
  - { offsetInCU: 0x532F7, offset: 0x532F7, size: 0x8, addend: 0x0, symName: __ZNSt6vectorIiSaIiEED1Ev, symObjAddr: 0x2E8C, symBinAddr: 0x100003F98, symSize: 0x5C }
  - { offsetInCU: 0x532FF, offset: 0x532FF, size: 0x8, addend: 0x0, symName: __ZNSt6vectorIiSaIiEEC1EmRKiRKS0_, symObjAddr: 0x2EE8, symBinAddr: 0x100003FF4, symSize: 0x70 }
  - { offsetInCU: 0x53380, offset: 0x53380, size: 0x8, addend: 0x0, symName: __ZNSt12_Vector_baseIiSaIiEED2Ev, symObjAddr: 0x2E3C, symBinAddr: 0x100003F48, symSize: 0x50 }
  - { offsetInCU: 0x53388, offset: 0x53388, size: 0x8, addend: 0x0, symName: __ZNSt6vectorIiSaIiEED1Ev, symObjAddr: 0x2E8C, symBinAddr: 0x100003F98, symSize: 0x5C }
  - { offsetInCU: 0x53401, offset: 0x53401, size: 0x8, addend: 0x0, symName: __ZNSt12_Vector_baseIxSaIxEE12_Vector_implC1EOS2_, symObjAddr: 0x2DD0, symBinAddr: 0x100003EDC, symSize: 0x6C }
  - { offsetInCU: 0x53409, offset: 0x53409, size: 0x8, addend: 0x0, symName: __ZNSt12_Vector_baseIiSaIiEED2Ev, symObjAddr: 0x2E3C, symBinAddr: 0x100003F48, symSize: 0x50 }
  - { offsetInCU: 0x5345B, offset: 0x5345B, size: 0x8, addend: 0x0, symName: __ZNSt6vectorIxSaIxEEixEm, symObjAddr: 0x2DA8, symBinAddr: 0x100003EB4, symSize: 0x28 }
  - { offsetInCU: 0x53463, offset: 0x53463, size: 0x8, addend: 0x0, symName: __ZNSt12_Vector_baseIxSaIxEE12_Vector_implC1EOS2_, symObjAddr: 0x2DD0, symBinAddr: 0x100003EDC, symSize: 0x6C }
  - { offsetInCU: 0x534E8, offset: 0x534E8, size: 0x8, addend: 0x0, symName: __ZNSt6vectorIxSaIxEEC1EmRKS0_, symObjAddr: 0x2D40, symBinAddr: 0x100003E4C, symSize: 0x68 }
  - { offsetInCU: 0x534F0, offset: 0x534F0, size: 0x8, addend: 0x0, symName: __ZNSt6vectorIxSaIxEEixEm, symObjAddr: 0x2DA8, symBinAddr: 0x100003EB4, symSize: 0x28 }
  - { offsetInCU: 0x53519, offset: 0x53519, size: 0x8, addend: 0x0, symName: __ZN7atcoder11convolutionILj469762049ExLPv0EEESt6vectorIT0_SaIS3_EERKS5_S7_, symObjAddr: 0x2A58, symBinAddr: 0x100003B64, symSize: 0x2E8 }
  - { offsetInCU: 0x53521, offset: 0x53521, size: 0x8, addend: 0x0, symName: __ZNSt6vectorIxSaIxEEC1EmRKS0_, symObjAddr: 0x2D40, symBinAddr: 0x100003E4C, symSize: 0x68 }
  - { offsetInCU: 0x53798, offset: 0x53798, size: 0x8, addend: 0x0, symName: __ZN7atcoder13static_modintILi469762049ELPv0EE3modEv, symObjAddr: 0x2A4C, symBinAddr: 0x100003B58, symSize: 0xC }
  - { offsetInCU: 0x537A0, offset: 0x537A0, size: 0x8, addend: 0x0, symName: __ZN7atcoder11convolutionILj469762049ExLPv0EEESt6vectorIT0_SaIS3_EERKS5_S7_, symObjAddr: 0x2A58, symBinAddr: 0x100003B64, symSize: 0x2E8 }
  - { offsetInCU: 0x537AF, offset: 0x537AF, size: 0x8, addend: 0x0, symName: __ZN7atcoder11convolutionILj167772161ExLPv0EEESt6vectorIT0_SaIS3_EERKS5_S7_, symObjAddr: 0x2764, symBinAddr: 0x100003870, symSize: 0x2E8 }
  - { offsetInCU: 0x537B7, offset: 0x537B7, size: 0x8, addend: 0x0, symName: __ZN7atcoder13static_modintILi469762049ELPv0EE3modEv, symObjAddr: 0x2A4C, symBinAddr: 0x100003B58, symSize: 0xC }
  - { offsetInCU: 0x53A2E, offset: 0x53A2E, size: 0x8, addend: 0x0, symName: __ZN7atcoder13static_modintILi167772161ELPv0EE3modEv, symObjAddr: 0x2758, symBinAddr: 0x100003864, symSize: 0xC }
  - { offsetInCU: 0x53A36, offset: 0x53A36, size: 0x8, addend: 0x0, symName: __ZN7atcoder11convolutionILj167772161ExLPv0EEESt6vectorIT0_SaIS3_EERKS5_S7_, symObjAddr: 0x2764, symBinAddr: 0x100003870, symSize: 0x2E8 }
  - { offsetInCU: 0x53A45, offset: 0x53A45, size: 0x8, addend: 0x0, symName: __ZN7atcoder11convolutionILj754974721ExLPv0EEESt6vectorIT0_SaIS3_EERKS5_S7_, symObjAddr: 0x2470, symBinAddr: 0x10000357C, symSize: 0x2E8 }
  - { offsetInCU: 0x53A4D, offset: 0x53A4D, size: 0x8, addend: 0x0, symName: __ZN7atcoder13static_modintILi167772161ELPv0EE3modEv, symObjAddr: 0x2758, symBinAddr: 0x100003864, symSize: 0xC }
  - { offsetInCU: 0x53CC4, offset: 0x53CC4, size: 0x8, addend: 0x0, symName: __ZN7atcoder13static_modintILi754974721ELPv0EE3modEv, symObjAddr: 0x2464, symBinAddr: 0x100003570, symSize: 0xC }
  - { offsetInCU: 0x53CCC, offset: 0x53CCC, size: 0x8, addend: 0x0, symName: __ZN7atcoder11convolutionILj754974721ExLPv0EEESt6vectorIT0_SaIS3_EERKS5_S7_, symObjAddr: 0x2470, symBinAddr: 0x10000357C, symSize: 0x2E8 }
  - { offsetInCU: 0x53D1A, offset: 0x53D1A, size: 0x8, addend: 0x0, symName: __ZNSt6vectorIxSaIxEED1Ev, symObjAddr: 0x2408, symBinAddr: 0x100003514, symSize: 0x5C }
  - { offsetInCU: 0x53D22, offset: 0x53D22, size: 0x8, addend: 0x0, symName: __ZN7atcoder13static_modintILi754974721ELPv0EE3modEv, symObjAddr: 0x2464, symBinAddr: 0x100003570, symSize: 0xC }
  - { offsetInCU: 0x53DA3, offset: 0x53DA3, size: 0x8, addend: 0x0, symName: __ZNSt12_Vector_baseIxSaIxEED2Ev, symObjAddr: 0x23B8, symBinAddr: 0x1000034C4, symSize: 0x50 }
  - { offsetInCU: 0x53DAB, offset: 0x53DAB, size: 0x8, addend: 0x0, symName: __ZNSt6vectorIxSaIxEED1Ev, symObjAddr: 0x2408, symBinAddr: 0x100003514, symSize: 0x5C }
  - { offsetInCU: 0x53E14, offset: 0x53E14, size: 0x8, addend: 0x0, symName: __ZNSt12_Vector_baseIxSaIxEE12_Vector_implC1Ev, symObjAddr: 0x2380, symBinAddr: 0x10000348C, symSize: 0x38 }
  - { offsetInCU: 0x53E1C, offset: 0x53E1C, size: 0x8, addend: 0x0, symName: __ZNSt12_Vector_baseIxSaIxEED2Ev, symObjAddr: 0x23B8, symBinAddr: 0x1000034C4, symSize: 0x50 }
  - { offsetInCU: 0x53E56, offset: 0x53E56, size: 0x8, addend: 0x0, symName: __ZNKSt6vectorIxSaIxEE4sizeEv, symObjAddr: 0x2358, symBinAddr: 0x100003464, symSize: 0x28 }
  - { offsetInCU: 0x53E5E, offset: 0x53E5E, size: 0x8, addend: 0x0, symName: __ZNSt12_Vector_baseIxSaIxEE12_Vector_implC1Ev, symObjAddr: 0x2380, symBinAddr: 0x10000348C, symSize: 0x38 }
  - { offsetInCU: 0x53E7D, offset: 0x53E7D, size: 0x8, addend: 0x0, symName: __ZSt4swapIyENSt9enable_ifIXsrSt6__and_IJSt6__not_ISt15__is_tuple_likeIT_EESt21is_move_constructibleIS4_ESt18is_move_assignableIS4_EEE5valueEvE4typeERS4_SE_, symObjAddr: 0x2304, symBinAddr: 0x100003410, symSize: 0x54 }
  - { offsetInCU: 0x53E85, offset: 0x53E85, size: 0x8, addend: 0x0, symName: __ZNKSt6vectorIxSaIxEE4sizeEv, symObjAddr: 0x2358, symBinAddr: 0x100003464, symSize: 0x28 }
  - { offsetInCU: 0x53F36, offset: 0x53F36, size: 0x8, addend: 0x0, symName: __ZNSt4pairIxxEC1IRxiEEOT_OT0_, symObjAddr: 0x22B8, symBinAddr: 0x1000033C4, symSize: 0x4C }
  - { offsetInCU: 0x53F3E, offset: 0x53F3E, size: 0x8, addend: 0x0, symName: __ZSt4swapIyENSt9enable_ifIXsrSt6__and_IJSt6__not_ISt15__is_tuple_likeIT_EESt21is_move_constructibleIS4_ESt18is_move_assignableIS4_EEE5valueEvE4typeERS4_SE_, symObjAddr: 0x2304, symBinAddr: 0x100003410, symSize: 0x54 }
  - { offsetInCU: 0x53F84, offset: 0x53F84, size: 0x8, addend: 0x0, symName: __ZSt3maxImERKT_S2_S2_, symObjAddr: 0x2280, symBinAddr: 0x10000338C, symSize: 0x38 }
  - { offsetInCU: 0x53F8C, offset: 0x53F8C, size: 0x8, addend: 0x0, symName: __ZNSt4pairIxxEC1IRxiEEOT_OT0_, symObjAddr: 0x22B8, symBinAddr: 0x1000033C4, symSize: 0x4C }
  - { offsetInCU: 0x53FD2, offset: 0x53FD2, size: 0x8, addend: 0x0, symName: _main, symObjAddr: 0x2134, symBinAddr: 0x100003240, symSize: 0x14C }
  - { offsetInCU: 0x53FDA, offset: 0x53FDA, size: 0x8, addend: 0x0, symName: __ZSt3maxImERKT_S2_S2_, symObjAddr: 0x2280, symBinAddr: 0x10000338C, symSize: 0x38 }
  - { offsetInCU: 0x540E6, offset: 0x540E6, size: 0x8, addend: 0x0, symName: __ZN4swagISt4pairIN7atcoder13static_modintILi998244353ELPv0EEES4_EXtlN2opMUlS5_S5_E_EEEXtlN1eMUlvE_EEEED1Ev, symObjAddr: 0x20F0, symBinAddr: 0x1000031FC, symSize: 0x44 }
  - { offsetInCU: 0x540EE, offset: 0x540EE, size: 0x8, addend: 0x0, symName: _main, symObjAddr: 0x2134, symBinAddr: 0x100003240, symSize: 0x14C }
  - { offsetInCU: 0x54128, offset: 0x54128, size: 0x8, addend: 0x0, symName: __ZNSt5stackISt4pairIN7atcoder13static_modintILi998244353ELPv0EEES4_ESt5dequeIS5_SaIS5_EEED1Ev, symObjAddr: 0x20D0, symBinAddr: 0x1000031DC, symSize: 0x20 }
  - { offsetInCU: 0x54130, offset: 0x54130, size: 0x8, addend: 0x0, symName: __ZN4swagISt4pairIN7atcoder13static_modintILi998244353ELPv0EEES4_EXtlN2opMUlS5_S5_E_EEEXtlN1eMUlvE_EEEED1Ev, symObjAddr: 0x20F0, symBinAddr: 0x1000031FC, symSize: 0x44 }
  - { offsetInCU: 0x540F8, offset: 0x540F8, size: 0x8, addend: 0x0, symName: __ZNK1eMUlvE_clEv, symObjAddr: 0x209C, symBinAddr: 0x1000031A8, symSize: 0x34 }
  - { offsetInCU: 0x54100, offset: 0x54100, size: 0x8, addend: 0x0, symName: __ZNSt5stackISt4pairIN7atcoder13static_modintILi998244353ELPv0EEES4_ESt5dequeIS5_SaIS5_EEED1Ev, symObjAddr: 0x20D0, symBinAddr: 0x1000031DC, symSize: 0x20 }
  - { offsetInCU: 0x54126, offset: 0x54126, size: 0x8, addend: 0x0, symName: __ZNK2opMUlSt4pairIN7atcoder13static_modintILi998244353ELPv0EEES4_ES5_E_clES5_S5_, symObjAddr: 0x2030, symBinAddr: 0x10000313C, symSize: 0x6C }
  - { offsetInCU: 0x5412E, offset: 0x5412E, size: 0x8, addend: 0x0, symName: __ZNK1eMUlvE_clEv, symObjAddr: 0x209C, symBinAddr: 0x1000031A8, symSize: 0x34 }
  - { offsetInCU: 0x541AC, offset: 0x541AC, size: 0x8, addend: 0x0, symName: __ZlsRSoRKN7atcoder13static_modintILi1000000007ELPv0EEE, symObjAddr: 0x2004, symBinAddr: 0x100003110, symSize: 0x2C }
  - { offsetInCU: 0x541B4, offset: 0x541B4, size: 0x8, addend: 0x0, symName: __ZNK2opMUlSt4pairIN7atcoder13static_modintILi998244353ELPv0EEES4_ES5_E_clES5_S5_, symObjAddr: 0x2030, symBinAddr: 0x10000313C, symSize: 0x6C }
  - { offsetInCU: 0x541FC, offset: 0x541FC, size: 0x8, addend: 0x0, symName: __ZlsRSoRKN7atcoder13static_modintILi998244353ELPv0EEE, symObjAddr: 0x1FD8, symBinAddr: 0x1000030E4, symSize: 0x2C }
  - { offsetInCU: 0x54204, offset: 0x54204, size: 0x8, addend: 0x0, symName: __ZlsRSoRKN7atcoder13static_modintILi1000000007ELPv0EEE, symObjAddr: 0x2004, symBinAddr: 0x100003110, symSize: 0x2C }
  - { offsetInCU: 0x54261, offset: 0x54261, size: 0x8, addend: 0x0, symName: __ZNSt13_Bvector_baseISaIbEE13_Bvector_implD1Ev, symObjAddr: 0x1FB8, symBinAddr: 0x1000030C4, symSize: 0x20 }
  - { offsetInCU: 0x54269, offset: 0x54269, size: 0x8, addend: 0x0, symName: __ZlsRSoRKN7atcoder13static_modintILi998244353ELPv0EEE, symObjAddr: 0x1FD8, symBinAddr: 0x1000030E4, symSize: 0x2C }
  - { offsetInCU: 0x5427C, offset: 0x5427C, size: 0x8, addend: 0x0, symName: __ZN7atcoder11z_algorithmERKNSt7__cxx1112basic_stringIcSt11char_traitsIcESaIcEEE, symObjAddr: 0x1EE8, symBinAddr: 0x100002FF4, symSize: 0xD0 }
  - { offsetInCU: 0x54284, offset: 0x54284, size: 0x8, addend: 0x0, symName: __ZNSt13_Bvector_baseISaIbEE13_Bvector_implD1Ev, symObjAddr: 0x1FB8, symBinAddr: 0x1000030C4, symSize: 0x20 }
  - { offsetInCU: 0x54351, offset: 0x54351, size: 0x8, addend: 0x0, symName: __ZN7atcoder9lcp_arrayERKNSt7__cxx1112basic_stringIcSt11char_traitsIcESaIcEEERKSt6vectorIiSaIiEE, symObjAddr: 0x1E10, symBinAddr: 0x100002F1C, symSize: 0xD8 }
  - { offsetInCU: 0x54359, offset: 0x54359, size: 0x8, addend: 0x0, symName: __ZN7atcoder11z_algorithmERKNSt7__cxx1112basic_stringIcSt11char_traitsIcESaIcEEE, symObjAddr: 0x1EE8, symBinAddr: 0x100002FF4, symSize: 0xD0 }
  - { offsetInCU: 0x54430, offset: 0x54430, size: 0x8, addend: 0x0, symName: __ZN7atcoder12suffix_arrayERKNSt7__cxx1112basic_stringIcSt11char_traitsIcESaIcEEE, symObjAddr: 0x1D3C, symBinAddr: 0x100002E48, symSize: 0xD4 }
  - { offsetInCU: 0x54438, offset: 0x54438, size: 0x8, addend: 0x0, symName: __ZN7atcoder9lcp_arrayERKNSt7__cxx1112basic_stringIcSt11char_traitsIcESaIcEEERKSt6vectorIiSaIiEE, symObjAddr: 0x1E10, symBinAddr: 0x100002F1C, symSize: 0xD8 }
  - { offsetInCU: 0x544FF, offset: 0x544FF, size: 0x8, addend: 0x0, symName: __ZN7atcoder12suffix_arrayERKSt6vectorIiSaIiEEi, symObjAddr: 0x1BF8, symBinAddr: 0x100002D04, symSize: 0x144 }
  - { offsetInCU: 0x54507, offset: 0x54507, size: 0x8, addend: 0x0, symName: __ZN7atcoder12suffix_arrayERKNSt7__cxx1112basic_stringIcSt11char_traitsIcESaIcEEE, symObjAddr: 0x1D3C, symBinAddr: 0x100002E48, symSize: 0xD4 }
  - { offsetInCU: 0x545BF, offset: 0x545BF, size: 0x8, addend: 0x0, symName: __ZNK9__gnu_cxx17__normal_iteratorIPKiSt6vectorIiSaIiEEEdeEv, symObjAddr: 0x1BE0, symBinAddr: 0x100002CEC, symSize: 0x18 }
  - { offsetInCU: 0x545C7, offset: 0x545C7, size: 0x8, addend: 0x0, symName: __ZN7atcoder12suffix_arrayERKSt6vectorIiSaIiEEi, symObjAddr: 0x1BF8, symBinAddr: 0x100002D04, symSize: 0x144 }
  - { offsetInCU: 0x545EA, offset: 0x545EA, size: 0x8, addend: 0x0, symName: __ZNK9__gnu_cxx17__normal_iteratorIPKiSt6vectorIiSaIiEEE4baseEv, symObjAddr: 0x1BCC, symBinAddr: 0x100002CD8, symSize: 0x14 }
  - { offsetInCU: 0x545F2, offset: 0x545F2, size: 0x8, addend: 0x0, symName: __ZNK9__gnu_cxx17__normal_iteratorIPKiSt6vectorIiSaIiEEEdeEv, symObjAddr: 0x1BE0, symBinAddr: 0x100002CEC, symSize: 0x18 }
  - { offsetInCU: 0x54617, offset: 0x54617, size: 0x8, addend: 0x0, symName: __ZN9__gnu_cxxeqIPKiSt6vectorIiSaIiEEEEbRKNS_17__normal_iteratorIT_T0_EESB_, symObjAddr: 0x1B88, symBinAddr: 0x100002C94, symSize: 0x44 }
  - { offsetInCU: 0x5461F, offset: 0x5461F, size: 0x8, addend: 0x0, symName: __ZNK9__gnu_cxx17__normal_iteratorIPKiSt6vectorIiSaIiEEE4baseEv, symObjAddr: 0x1BCC, symBinAddr: 0x100002CD8, symSize: 0x14 }
  - { offsetInCU: 0x54664, offset: 0x54664, size: 0x8, addend: 0x0, symName: __ZN7atcoder8internal11sa_doublingERKSt6vectorIiSaIiEE, symObjAddr: 0x18F8, symBinAddr: 0x100002A04, symSize: 0x290 }
  - { offsetInCU: 0x5466C, offset: 0x5466C, size: 0x8, addend: 0x0, symName: __ZN9__gnu_cxxeqIPKiSt6vectorIiSaIiEEEEbRKNS_17__normal_iteratorIT_T0_EESB_, symObjAddr: 0x1B88, symBinAddr: 0x100002C94, symSize: 0x44 }
  - { offsetInCU: 0x54786, offset: 0x54786, size: 0x8, addend: 0x0, symName: __ZZN7atcoder8internal11sa_doublingERKSt6vectorIiSaIiEEENKUliiE_clEii, symObjAddr: 0x1758, symBinAddr: 0x100002864, symSize: 0x178 }
  - { offsetInCU: 0x5478E, offset: 0x5478E, size: 0x8, addend: 0x0, symName: __ZNSt6vectorIiSaIiEEixEm, symObjAddr: 0x18D0, symBinAddr: 0x1000029DC, symSize: 0x28 }
  - { offsetInCU: 0x5494D, offset: 0x5494D, size: 0x8, addend: 0x0, symName: __ZNSt6vectorIiSaIiEEixEm, symObjAddr: 0x18D0, symBinAddr: 0x1000029DC, symSize: 0x28 }
  - { offsetInCU: 0x54955, offset: 0x54955, size: 0x8, addend: 0x0, symName: __ZN7atcoder8internal11sa_doublingERKSt6vectorIiSaIiEE, symObjAddr: 0x18F8, symBinAddr: 0x100002A04, symSize: 0x290 }
  - { offsetInCU: 0x54985, offset: 0x54985, size: 0x8, addend: 0x0, symName: __ZN7atcoder8internal8sa_naiveERKSt6vectorIiSaIiEE, symObjAddr: 0x1684, symBinAddr: 0x100002790, symSize: 0xD4 }
  - { offsetInCU: 0x5498D, offset: 0x5498D, size: 0x8, addend: 0x0, symName: __ZZN7atcoder8internal11sa_doublingERKSt6vectorIiSaIiEEENKUliiE_clEii, symObjAddr: 0x1758, symBinAddr: 0x100002864, symSize: 0x178 }
  - { offsetInCU: 0x54A3E, offset: 0x54A3E, size: 0x8, addend: 0x0, symName: __ZZN7atcoder8internal8sa_naiveERKSt6vectorIiSaIiEEENKUliiE_clEii, symObjAddr: 0x151C, symBinAddr: 0x100002628, symSize: 0x118 }
  - { offsetInCU: 0x54A46, offset: 0x54A46, size: 0x8, addend: 0x0, symName: __ZNSt12_Vector_baseIiSaIiEEC2EOS1_, symObjAddr: 0x1634, symBinAddr: 0x100002740, symSize: 0x28 }
  - { offsetInCU: 0x54B64, offset: 0x54B64, size: 0x8, addend: 0x0, symName: __ZNSt6vectorIiSaIiEEC1EOS1_, symObjAddr: 0x165C, symBinAddr: 0x100002768, symSize: 0x28 }
  - { offsetInCU: 0x54B6C, offset: 0x54B6C, size: 0x8, addend: 0x0, symName: __ZN7atcoder8internal8sa_naiveERKSt6vectorIiSaIiEE, symObjAddr: 0x1684, symBinAddr: 0x100002790, symSize: 0xD4 }
  - { offsetInCU: 0x54BBA, offset: 0x54BBA, size: 0x8, addend: 0x0, symName: __ZNSt12_Vector_baseIiSaIiEEC2EOS1_, symObjAddr: 0x1634, symBinAddr: 0x100002740, symSize: 0x28 }
  - { offsetInCU: 0x54BC2, offset: 0x54BC2, size: 0x8, addend: 0x0, symName: __ZNSt6vectorIiSaIiEEC1EOS1_, symObjAddr: 0x165C, symBinAddr: 0x100002768, symSize: 0x28 }
  - { offsetInCU: 0x54BCA, offset: 0x54BCA, size: 0x8, addend: 0x0, symName: __ZNK9__gnu_cxx17__normal_iteratorIPiSt6vectorIiSaIiEEEdeEv, symObjAddr: 0x1504, symBinAddr: 0x100002610, symSize: 0x18 }
  - { offsetInCU: 0x54BD2, offset: 0x54BD2, size: 0x8, addend: 0x0, symName: __ZZN7atcoder8internal8sa_naiveERKSt6vectorIiSaIiEEENKUliiE_clEii, symObjAddr: 0x151C, symBinAddr: 0x100002628, symSize: 0x118 }
  - { offsetInCU: 0x54BF5, offset: 0x54BF5, size: 0x8, addend: 0x0, symName: __ZNK9__gnu_cxx17__normal_iteratorIPiSt6vectorIiSaIiEEE4baseEv, symObjAddr: 0x14F0, symBinAddr: 0x1000025FC, symSize: 0x14 }
  - { offsetInCU: 0x54BFD, offset: 0x54BFD, size: 0x8, addend: 0x0, symName: __ZNK9__gnu_cxx17__normal_iteratorIPiSt6vectorIiSaIiEEEdeEv, symObjAddr: 0x1504, symBinAddr: 0x100002610, symSize: 0x18 }
  - { offsetInCU: 0x54C1C, offset: 0x54C1C, size: 0x8, addend: 0x0, symName: __ZN9__gnu_cxxeqIPiSt6vectorIiSaIiEEEEbRKNS_17__normal_iteratorIT_T0_EESA_, symObjAddr: 0x14AC, symBinAddr: 0x1000025B8, symSize: 0x44 }
  - { offsetInCU: 0x54C24, offset: 0x54C24, size: 0x8, addend: 0x0, symName: __ZNK9__gnu_cxx17__normal_iteratorIPiSt6vectorIiSaIiEEE4baseEv, symObjAddr: 0x14F0, symBinAddr: 0x1000025FC, symSize: 0x14 }
  - { offsetInCU: 0x54CB7, offset: 0x54CB7, size: 0x8, addend: 0x0, symName: __ZNSt12_Vector_baseIiSaIiEE17_Vector_impl_dataC2Ev, symObjAddr: 0x1480, symBinAddr: 0x10000258C, symSize: 0x2C }
  - { offsetInCU: 0x54CBF, offset: 0x54CBF, size: 0x8, addend: 0x0, symName: __ZN9__gnu_cxxeqIPiSt6vectorIiSaIiEEEEbRKNS_17__normal_iteratorIT_T0_EESA_, symObjAddr: 0x14AC, symBinAddr: 0x1000025B8, symSize: 0x44 }
  - { offsetInCU: 0x54D21, offset: 0x54D21, size: 0x8, addend: 0x0, symName: __ZNSt12_Vector_baseIiSaIiEE12_Vector_implC1Ev, symObjAddr: 0x1448, symBinAddr: 0x100002554, symSize: 0x38 }
  - { offsetInCU: 0x54D29, offset: 0x54D29, size: 0x8, addend: 0x0, symName: __ZNSt12_Vector_baseIiSaIiEE17_Vector_impl_dataC2Ev, symObjAddr: 0x1480, symBinAddr: 0x10000258C, symSize: 0x2C }
  - { offsetInCU: 0x54D5F, offset: 0x54D5F, size: 0x8, addend: 0x0, symName: __ZN7atcoder9floor_sumExxxx, symObjAddr: 0x1274, symBinAddr: 0x100002380, symSize: 0x1D4 }
  - { offsetInCU: 0x54D67, offset: 0x54D67, size: 0x8, addend: 0x0, symName: __ZNSt12_Vector_baseIiSaIiEE12_Vector_implC1Ev, symObjAddr: 0x1448, symBinAddr: 0x100002554, symSize: 0x38 }
  - { offsetInCU: 0x54E23, offset: 0x54E23, size: 0x8, addend: 0x0, symName: __ZN7atcoder3crtERKSt6vectorIxSaIxEES4_, symObjAddr: 0xF80, symBinAddr: 0x10000208C, symSize: 0x2F4 }
  - { offsetInCU: 0x54E2B, offset: 0x54E2B, size: 0x8, addend: 0x0, symName: __ZN7atcoder9floor_sumExxxx, symObjAddr: 0x1274, symBinAddr: 0x100002380, symSize: 0x1D4 }
  - { offsetInCU: 0x54F3F, offset: 0x54F3F, size: 0x8, addend: 0x0, symName: __ZN7atcoder7inv_modExx, symObjAddr: 0xEDC, symBinAddr: 0x100001FE8, symSize: 0xA4 }
  - { offsetInCU: 0x54F47, offset: 0x54F47, size: 0x8, addend: 0x0, symName: __ZN7atcoder3crtERKSt6vectorIxSaIxEES4_, symObjAddr: 0xF80, symBinAddr: 0x10000208C, symSize: 0x2F4 }
  - { offsetInCU: 0x54FAE, offset: 0x54FAE, size: 0x8, addend: 0x0, symName: __ZN7atcoder7pow_modExxi, symObjAddr: 0xDC0, symBinAddr: 0x100001ECC, symSize: 0x11C }
  - { offsetInCU: 0x54FB6, offset: 0x54FB6, size: 0x8, addend: 0x0, symName: __ZN7atcoder7inv_modExx, symObjAddr: 0xEDC, symBinAddr: 0x100001FE8, symSize: 0xA4 }
  - { offsetInCU: 0x55070, offset: 0x55070, size: 0x8, addend: 0x0, symName: __ZNSt6vectorIiSaIiEEC1Ev, symObjAddr: 0xDA0, symBinAddr: 0x100001EAC, symSize: 0x20 }
  - { offsetInCU: 0x55078, offset: 0x55078, size: 0x8, addend: 0x0, symName: __ZN7atcoder7pow_modExxi, symObjAddr: 0xDC0, symBinAddr: 0x100001ECC, symSize: 0x11C }
  - { offsetInCU: 0x550B8, offset: 0x550B8, size: 0x8, addend: 0x0, symName: __ZNSt12_Vector_baseIiSaIiEEC2Ev, symObjAddr: 0xD80, symBinAddr: 0x100001E8C, symSize: 0x20 }
  - { offsetInCU: 0x550C0, offset: 0x550C0, size: 0x8, addend: 0x0, symName: __ZNSt6vectorIiSaIiEEC1Ev, symObjAddr: 0xDA0, symBinAddr: 0x100001EAC, symSize: 0x20 }
  - { offsetInCU: 0x55115, offset: 0x55115, size: 0x8, addend: 0x0, symName: __ZNSt12_Vector_baseIiSaIiEE12_Vector_implD1Ev, symObjAddr: 0xD60, symBinAddr: 0x100001E6C, symSize: 0x20 }
  - { offsetInCU: 0x5511D, offset: 0x5511D, size: 0x8, addend: 0x0, symName: __ZNSt12_Vector_baseIiSaIiEEC2Ev, symObjAddr: 0xD80, symBinAddr: 0x100001E8C, symSize: 0x20 }
  - { offsetInCU: 0x55130, offset: 0x55130, size: 0x8, addend: 0x0, symName: __ZN7atcoder14convolution_llERKSt6vectorIxSaIxEES4_, symObjAddr: 0x988, symBinAddr: 0x100001A94, symSize: 0x3D8 }
  - { offsetInCU: 0x55138, offset: 0x55138, size: 0x8, addend: 0x0, symName: __ZNSt12_Vector_baseIiSaIiEE12_Vector_implD1Ev, symObjAddr: 0xD60, symBinAddr: 0x100001E6C, symSize: 0x20 }
  - { offsetInCU: 0x55199, offset: 0x55199, size: 0x8, addend: 0x0, symName: __ZZN7atcoder14convolution_llERKSt6vectorIxSaIxEES4_E4MOD1, symObjAddr: 0x15F90, symBinAddr: 0x100019278, symSize: 0x0 }
  - { offsetInCU: 0x551B1, offset: 0x551B1, size: 0x8, addend: 0x0, symName: __ZZN7atcoder14convolution_llERKSt6vectorIxSaIxEES4_E4MOD2, symObjAddr: 0x15F98, symBinAddr: 0x100019280, symSize: 0x0 }
  - { offsetInCU: 0x551C9, offset: 0x551C9, size: 0x8, addend: 0x0, symName: __ZZN7atcoder14convolution_llERKSt6vectorIxSaIxEES4_E4MOD3, symObjAddr: 0x15FA0, symBinAddr: 0x100019288, symSize: 0x0 }
  - { offsetInCU: 0x551E1, offset: 0x551E1, size: 0x8, addend: 0x0, symName: __ZZN7atcoder14convolution_llERKSt6vectorIxSaIxEES4_E4M2M3, symObjAddr: 0x15FA8, symBinAddr: 0x100019290, symSize: 0x0 }
  - { offsetInCU: 0x551F9, offset: 0x551F9, size: 0x8, addend: 0x0, symName: __ZZN7atcoder14convolution_llERKSt6vectorIxSaIxEES4_E4M1M3, symObjAddr: 0x15FB0, symBinAddr: 0x100019298, symSize: 0x0 }
  - { offsetInCU: 0x55211, offset: 0x55211, size: 0x8, addend: 0x0, symName: __ZZN7atcoder14convolution_llERKSt6vectorIxSaIxEES4_E4M1M2, symObjAddr: 0x15FB8, symBinAddr: 0x1000192A0, symSize: 0x0 }
  - { offsetInCU: 0x5522B, offset: 0x5522B, size: 0x8, addend: 0x0, symName: __ZZN7atcoder14convolution_llERKSt6vectorIxSaIxEES4_E6M1M2M3, symObjAddr: 0x15FC0, symBinAddr: 0x1000192A8, symSize: 0x0 }
  - { offsetInCU: 0x5523F, offset: 0x5523F, size: 0x8, addend: 0x0, symName: __ZZN7atcoder14convolution_llERKSt6vectorIxSaIxEES4_E2i1, symObjAddr: 0x15FC8, symBinAddr: 0x1000192B0, symSize: 0x0 }
  - { offsetInCU: 0x55257, offset: 0x55257, size: 0x8, addend: 0x0, symName: __ZZN7atcoder14convolution_llERKSt6vectorIxSaIxEES4_E2i2, symObjAddr: 0x15FD0, symBinAddr: 0x1000192B8, symSize: 0x0 }
  - { offsetInCU: 0x5526F, offset: 0x5526F, size: 0x8, addend: 0x0, symName: __ZZN7atcoder14convolution_llERKSt6vectorIxSaIxEES4_E2i3, symObjAddr: 0x15FD8, symBinAddr: 0x1000192C0, symSize: 0x0 }
  - { offsetInCU: 0x5528F, offset: 0x5528F, size: 0x8, addend: 0x0, symName: __ZZN7atcoder14convolution_llERKSt6vectorIxSaIxEES4_E10MAX_AB_BIT, symObjAddr: 0x15FE0, symBinAddr: 0x1000192C8, symSize: 0x0 }
  - { offsetInCU: 0x55354, offset: 0x55354, size: 0x8, addend: 0x0, symName: __ZZN7atcoder14convolution_llERKSt6vectorIxSaIxEES4_E6offset, symObjAddr: 0x15FE8, symBinAddr: 0x1000192D0, symSize: 0x0 }
  - { offsetInCU: 0x55428, offset: 0x55428, size: 0x8, addend: 0x0, symName: __ZNSt6vectorIxSaIxEEC1EOS1_, symObjAddr: 0x960, symBinAddr: 0x100001A6C, symSize: 0x28 }
  - { offsetInCU: 0x55430, offset: 0x55430, size: 0x8, addend: 0x0, symName: __ZN7atcoder14convolution_llERKSt6vectorIxSaIxEES4_, symObjAddr: 0x988, symBinAddr: 0x100001A94, symSize: 0x3D8 }
  - { offsetInCU: 0x5547E, offset: 0x5547E, size: 0x8, addend: 0x0, symName: __ZNSt12_Vector_baseIxSaIxEEC2EOS1_, symObjAddr: 0x938, symBinAddr: 0x100001A44, symSize: 0x28 }
  - { offsetInCU: 0x55486, offset: 0x55486, size: 0x8, addend: 0x0, symName: __ZNSt6vectorIxSaIxEEC1EOS1_, symObjAddr: 0x960, symBinAddr: 0x100001A6C, symSize: 0x28 }
  - { offsetInCU: 0x55490, offset: 0x55490, size: 0x8, addend: 0x0, symName: __ZSt7forwardIRxEOT_RNSt16remove_referenceIS1_E4typeE, symObjAddr: 0x924, symBinAddr: 0x100001A30, symSize: 0x14 }
  - { offsetInCU: 0x55498, offset: 0x55498, size: 0x8, addend: 0x0, symName: __ZNSt12_Vector_baseIxSaIxEEC2EOS1_, symObjAddr: 0x938, symBinAddr: 0x100001A44, symSize: 0x28 }
  - { offsetInCU: 0x5552B, offset: 0x5552B, size: 0x8, addend: 0x0, symName: __ZNSt4pairIxxEC1IRxS2_EEOT_OT0_, symObjAddr: 0x8DC, symBinAddr: 0x1000019E8, symSize: 0x48 }
  - { offsetInCU: 0x55533, offset: 0x55533, size: 0x8, addend: 0x0, symName: __ZSt7forwardIRxEOT_RNSt16remove_referenceIS1_E4typeE, symObjAddr: 0x924, symBinAddr: 0x100001A30, symSize: 0x14 }
  - { offsetInCU: 0x55589, offset: 0x55589, size: 0x8, addend: 0x0, symName: __ZNSt6vectorIxSaIxEEC1Ev, symObjAddr: 0x8BC, symBinAddr: 0x1000019C8, symSize: 0x20 }
  - { offsetInCU: 0x55591, offset: 0x55591, size: 0x8, addend: 0x0, symName: __ZNSt4pairIxxEC1IRxS2_EEOT_OT0_, symObjAddr: 0x8DC, symBinAddr: 0x1000019E8, symSize: 0x48 }
  - { offsetInCU: 0x555D1, offset: 0x555D1, size: 0x8, addend: 0x0, symName: __ZNSt12_Vector_baseIxSaIxEEC2Ev, symObjAddr: 0x89C, symBinAddr: 0x1000019A8, symSize: 0x20 }
  - { offsetInCU: 0x555D9, offset: 0x555D9, size: 0x8, addend: 0x0, symName: __ZNSt6vectorIxSaIxEEC1Ev, symObjAddr: 0x8BC, symBinAddr: 0x1000019C8, symSize: 0x20 }
  - { offsetInCU: 0x5562E, offset: 0x5562E, size: 0x8, addend: 0x0, symName: __ZNSt12_Vector_baseIxSaIxEE12_Vector_implD1Ev, symObjAddr: 0x87C, symBinAddr: 0x100001988, symSize: 0x20 }
  - { offsetInCU: 0x55636, offset: 0x55636, size: 0x8, addend: 0x0, symName: __ZNSt12_Vector_baseIxSaIxEEC2Ev, symObjAddr: 0x89C, symBinAddr: 0x1000019A8, symSize: 0x20 }
  - { offsetInCU: 0x55649, offset: 0x55649, size: 0x8, addend: 0x0, symName: __ZN7atcoder8internal18floor_sum_unsignedEyyyy, symObjAddr: 0x750, symBinAddr: 0x10000185C, symSize: 0x12C }
  - { offsetInCU: 0x55651, offset: 0x55651, size: 0x8, addend: 0x0, symName: __ZNSt12_Vector_baseIxSaIxEE12_Vector_implD1Ev, symObjAddr: 0x87C, symBinAddr: 0x100001988, symSize: 0x20 }
  - { offsetInCU: 0x556C9, offset: 0x556C9, size: 0x8, addend: 0x0, symName: __ZN7atcoder8internal7inv_gcdExx, symObjAddr: 0x628, symBinAddr: 0x100001734, symSize: 0x128 }
  - { offsetInCU: 0x556D1, offset: 0x556D1, size: 0x8, addend: 0x0, symName: __ZN7atcoder8internal18floor_sum_unsignedEyyyy, symObjAddr: 0x750, symBinAddr: 0x10000185C, symSize: 0x12C }
  - { offsetInCU: 0x5577D, offset: 0x5577D, size: 0x8, addend: 0x0, symName: __ZNK7atcoder8internal7barrett3mulEjj, symObjAddr: 0x568, symBinAddr: 0x100001674, symSize: 0xC0 }
  - { offsetInCU: 0x55785, offset: 0x55785, size: 0x8, addend: 0x0, symName: __ZN7atcoder8internal7inv_gcdExx, symObjAddr: 0x628, symBinAddr: 0x100001734, symSize: 0x128 }
  - { offsetInCU: 0x5583D, offset: 0x5583D, size: 0x8, addend: 0x0, symName: __ZN7atcoder8internal7barrettC1Ej, symObjAddr: 0x52C, symBinAddr: 0x100001638, symSize: 0x3C }
  - { offsetInCU: 0x55845, offset: 0x55845, size: 0x8, addend: 0x0, symName: __ZNK7atcoder8internal7barrett3mulEjj, symObjAddr: 0x568, symBinAddr: 0x100001674, symSize: 0xC0 }
  - { offsetInCU: 0x5584B, offset: 0x5584B, size: 0x8, addend: 0x0, symName: __ZN7atcoder8internal8safe_modExx, symObjAddr: 0x4DC, symBinAddr: 0x1000015E8, symSize: 0x50 }
  - { offsetInCU: 0x55853, offset: 0x55853, size: 0x8, addend: 0x0, symName: __ZN7atcoder8internal7barrettC1Ej, symObjAddr: 0x52C, symBinAddr: 0x100001638, symSize: 0x3C }
  - { offsetInCU: 0x55884, offset: 0x55884, size: 0x8, addend: 0x0, symName: __ZN7atcoder8internal11countr_zeroEj, symObjAddr: 0x4C0, symBinAddr: 0x1000015CC, symSize: 0x1C }
  - { offsetInCU: 0x5588C, offset: 0x5588C, size: 0x8, addend: 0x0, symName: __ZN7atcoder8internal8safe_modExx, symObjAddr: 0x4DC, symBinAddr: 0x1000015E8, symSize: 0x50 }
  - { offsetInCU: 0x558AD, offset: 0x558AD, size: 0x8, addend: 0x0, symName: __ZSt16__deque_buf_sizem, symObjAddr: 0x490, symBinAddr: 0x10000159C, symSize: 0x30 }
  - { offsetInCU: 0x558B5, offset: 0x558B5, size: 0x8, addend: 0x0, symName: __ZN7atcoder8internal11countr_zeroEj, symObjAddr: 0x4C0, symBinAddr: 0x1000015CC, symSize: 0x1C }
  - { offsetInCU: 0x558D6, offset: 0x558D6, size: 0x8, addend: 0x0, symName: __ZSt16__fill_bvector_nPmmb, symObjAddr: 0x3D4, symBinAddr: 0x1000014E0, symSize: 0xBC }
  - { offsetInCU: 0x558DE, offset: 0x558DE, size: 0x8, addend: 0x0, symName: __ZSt16__deque_buf_sizem, symObjAddr: 0x490, symBinAddr: 0x10000159C, symSize: 0x30 }
  - { offsetInCU: 0x5594C, offset: 0x5594C, size: 0x8, addend: 0x0, symName: __ZStplRKSt13_Bit_iteratorl, symObjAddr: 0x37C, symBinAddr: 0x100001488, symSize: 0x58 }
  - { offsetInCU: 0x55954, offset: 0x55954, size: 0x8, addend: 0x0, symName: __ZSt16__fill_bvector_nPmmb, symObjAddr: 0x3D4, symBinAddr: 0x1000014E0, symSize: 0xBC }
  - { offsetInCU: 0x5599C, offset: 0x5599C, size: 0x8, addend: 0x0, symName: __ZNKSt13_Bit_iteratorixEl, symObjAddr: 0x34C, symBinAddr: 0x100001458, symSize: 0x30 }
  - { offsetInCU: 0x559A4, offset: 0x559A4, size: 0x8, addend: 0x0, symName: __ZStplRKSt13_Bit_iteratorl, symObjAddr: 0x37C, symBinAddr: 0x100001488, symSize: 0x58 }
  - { offsetInCU: 0x559D8, offset: 0x559D8, size: 0x8, addend: 0x0, symName: __ZNSt13_Bit_iteratorpLEl, symObjAddr: 0x324, symBinAddr: 0x100001430, symSize: 0x28 }
  - { offsetInCU: 0x559E0, offset: 0x559E0, size: 0x8, addend: 0x0, symName: __ZNKSt13_Bit_iteratorixEl, symObjAddr: 0x34C, symBinAddr: 0x100001458, symSize: 0x30 }
  - { offsetInCU: 0x55A14, offset: 0x55A14, size: 0x8, addend: 0x0, symName: __ZNKSt13_Bit_iteratordeEv, symObjAddr: 0x2E4, symBinAddr: 0x1000013F0, symSize: 0x40 }
  - { offsetInCU: 0x55A1C, offset: 0x55A1C, size: 0x8, addend: 0x0, symName: __ZNSt13_Bit_iteratorpLEl, symObjAddr: 0x324, symBinAddr: 0x100001430, symSize: 0x28 }
  - { offsetInCU: 0x55A8D, offset: 0x55A8D, size: 0x8, addend: 0x0, symName: __ZNSt13_Bit_iteratorC1EPmj, symObjAddr: 0x2B4, symBinAddr: 0x1000013C0, symSize: 0x30 }
  - { offsetInCU: 0x55A95, offset: 0x55A95, size: 0x8, addend: 0x0, symName: __ZNKSt13_Bit_iteratordeEv, symObjAddr: 0x2E4, symBinAddr: 0x1000013F0, symSize: 0x40 }
  - { offsetInCU: 0x55ADE, offset: 0x55ADE, size: 0x8, addend: 0x0, symName: __ZNSt13_Bit_iteratorC1Ev, symObjAddr: 0x28C, symBinAddr: 0x100001398, symSize: 0x28 }
  - { offsetInCU: 0x55AE6, offset: 0x55AE6, size: 0x8, addend: 0x0, symName: __ZNSt13_Bit_iteratorC1EPmj, symObjAddr: 0x2B4, symBinAddr: 0x1000013C0, symSize: 0x30 }
  - { offsetInCU: 0x55AEF, offset: 0x55AEF, size: 0x8, addend: 0x0, symName: __ZNSt18_Bit_iterator_base7_M_incrEl, symObjAddr: 0x1DC, symBinAddr: 0x1000012E8, symSize: 0xB0 }
  - { offsetInCU: 0x55AF7, offset: 0x55AF7, size: 0x8, addend: 0x0, symName: __ZNSt13_Bit_iteratorC1Ev, symObjAddr: 0x28C, symBinAddr: 0x100001398, symSize: 0x28 }
  - { offsetInCU: 0x55B8B, offset: 0x55B8B, size: 0x8, addend: 0x0, symName: __ZNSt18_Bit_iterator_baseC2EPmj, symObjAddr: 0x1A8, symBinAddr: 0x1000012B4, symSize: 0x34 }
  - { offsetInCU: 0x55B93, offset: 0x55B93, size: 0x8, addend: 0x0, symName: __ZNSt18_Bit_iterator_base7_M_incrEl, symObjAddr: 0x1DC, symBinAddr: 0x1000012E8, symSize: 0xB0 }
  - { offsetInCU: 0x55BA7, offset: 0x55BA7, size: 0x8, addend: 0x0, symName: __ZNSt14_Bit_referenceaSEb, symObjAddr: 0x130, symBinAddr: 0x10000123C, symSize: 0x78 }
  - { offsetInCU: 0x55BAF, offset: 0x55BAF, size: 0x8, addend: 0x0, symName: __ZNSt18_Bit_iterator_baseC2EPmj, symObjAddr: 0x1A8, symBinAddr: 0x1000012B4, symSize: 0x34 }
  - { offsetInCU: 0x55BE2, offset: 0x55BE2, size: 0x8, addend: 0x0, symName: __ZNKSt14_Bit_referencecvbEv, symObjAddr: 0xFC, symBinAddr: 0x100001208, symSize: 0x34 }
  - { offsetInCU: 0x55BEA, offset: 0x55BEA, size: 0x8, addend: 0x0, symName: __ZNSt14_Bit_referenceaSEb, symObjAddr: 0x130, symBinAddr: 0x10000123C, symSize: 0x78 }
  - { offsetInCU: 0x55C5A, offset: 0x55C5A, size: 0x8, addend: 0x0, symName: __ZNSt14_Bit_referenceC1EPmm, symObjAddr: 0xC8, symBinAddr: 0x1000011D4, symSize: 0x34 }
  - { offsetInCU: 0x55C62, offset: 0x55C62, size: 0x8, addend: 0x0, symName: __ZNKSt14_Bit_referencecvbEv, symObjAddr: 0xFC, symBinAddr: 0x100001208, symSize: 0x34 }
  - { offsetInCU: 0x55C76, offset: 0x55C76, size: 0x8, addend: 0x0, symName: __ZSt3minImERKT_S2_S2_, symObjAddr: 0x90, symBinAddr: 0x10000119C, symSize: 0x38 }
  - { offsetInCU: 0x55C7E, offset: 0x55C7E, size: 0x8, addend: 0x0, symName: __ZNSt14_Bit_referenceC1EPmm, symObjAddr: 0xC8, symBinAddr: 0x1000011D4, symSize: 0x34 }
  - { offsetInCU: 0x55CBC, offset: 0x55CBC, size: 0x8, addend: 0x0, symName: __ZNKSt7__cxx1112basic_stringIcSt11char_traitsIcESaIcEE4sizeEv, symObjAddr: 0x78, symBinAddr: 0x100001184, symSize: 0x18 }
  - { offsetInCU: 0x55CC4, offset: 0x55CC4, size: 0x8, addend: 0x0, symName: __ZSt3minImERKT_S2_S2_, symObjAddr: 0x90, symBinAddr: 0x10000119C, symSize: 0x38 }
  - { offsetInCU: 0x55CE3, offset: 0x55CE3, size: 0x8, addend: 0x0, symName: __ZSt17__size_to_integerm, symObjAddr: 0x64, symBinAddr: 0x100001170, symSize: 0x14 }
  - { offsetInCU: 0x55CEB, offset: 0x55CEB, size: 0x8, addend: 0x0, symName: __ZNKSt7__cxx1112basic_stringIcSt11char_traitsIcESaIcEE4sizeEv, symObjAddr: 0x78, symBinAddr: 0x100001184, symSize: 0x18 }
  - { offsetInCU: 0x55D1E, offset: 0x55D1E, size: 0x8, addend: 0x0, symName: __ZnwmPv, symObjAddr: 0x4C, symBinAddr: 0x100001158, symSize: 0x18 }
  - { offsetInCU: 0x55D26, offset: 0x55D26, size: 0x8, addend: 0x0, symName: __ZSt17__size_to_integerm, symObjAddr: 0x64, symBinAddr: 0x100001170, symSize: 0x14 }
  - { offsetInCU: 0x55D4B, offset: 0x55D4B, size: 0x8, addend: 0x0, symName: __ZStltSt15strong_orderingNSt9__cmp_cat8__unspecE, symObjAddr: 0x28, symBinAddr: 0x100001134, symSize: 0x24 }
  - { offsetInCU: 0x55D53, offset: 0x55D53, size: 0x8, addend: 0x0, symName: __ZnwmPv, symObjAddr: 0x4C, symBinAddr: 0x100001158, symSize: 0x18 }
  - { offsetInCU: 0x55DBE, offset: 0x55DBE, size: 0x8, addend: 0x0, symName: __ZNSt9__cmp_cat8__unspecC1EPS0_, symObjAddr: 0x10, symBinAddr: 0x10000111C, symSize: 0x18 }
  - { offsetInCU: 0x55DC6, offset: 0x55DC6, size: 0x8, addend: 0x0, symName: __ZStltSt15strong_orderingNSt9__cmp_cat8__unspecE, symObjAddr: 0x28, symBinAddr: 0x100001134, symSize: 0x24 }
  - { offsetInCU: 0x55DCE, offset: 0x55DCE, size: 0x8, addend: 0x0, symName: __ZSt21is_constant_evaluatedv, symObjAddr: 0x8, symBinAddr: 0x100001114, symSize: 0x8 }
  - { offsetInCU: 0x55DD6, offset: 0x55DD6, size: 0x8, addend: 0x0, symName: __ZNSt9__cmp_cat8__unspecC1EPS0_, symObjAddr: 0x10, symBinAddr: 0x10000111C, symSize: 0x18 }
  - { offsetInCU: 0x55DE6, offset: 0x55DE6, size: 0x8, addend: 0x0, symName: __ZSt23__is_constant_evaluatedv, symObjAddr: 0x0, symBinAddr: 0x10000110C, symSize: 0x8 }
  - { offsetInCU: 0x55DEE, offset: 0x55DEE, size: 0x8, addend: 0x0, symName: __ZSt21is_constant_evaluatedv, symObjAddr: 0x8, symBinAddr: 0x100001114, symSize: 0x8 }
...
